	.file	"benchmark.c"
	.text
.Ltext0:
	.section	.text.unlikely,"ax",@progbits
.LCOLDB2:
	.text
.LHOTB2:
	.p2align 4,,15
	.section	.text.unlikely
.Ltext_cold0:
	.text
	.globl	reference_dgemm
	.type	reference_dgemm, @function
reference_dgemm:
.LFB2283:
	.file 1 "benchmark.c"
	.loc 1 18 0
	.cfi_startproc
.LVL0:
	pushq	%rbp
	.cfi_def_cfa_offset 16
	.cfi_offset 6, -16
	movq	%rsp, %rbp
	.cfi_def_cfa_register 6
	call	mcount
	.loc 1 18 0
.LVL1:
	.loc 1 24 0
	vmovsd	.LC1(%rip), %xmm1
	movslq	%edi, %rdi
	pushq	%rdi
	movq	%rdi, %r9
	movq	%rdi, %r8
	pushq	%rcx
	movq	%rdi, %rcx
.LVL2:
	pushq	%rdi
.LVL3:
	pushq	%rdx
.LVL4:
	movl	$111, %edx
.LVL5:
	pushq	%rdi
.LVL6:
	movl	$102, %edi
.LVL7:
	pushq	%rsi
.LVL8:
	movl	$111, %esi
.LVL9:
	call	cblas_dgemm
.LVL10:
	addq	$48, %rsp
	.loc 1 25 0
	leave
	.cfi_def_cfa 7, 8
	ret
	.cfi_endproc
.LFE2283:
	.size	reference_dgemm, .-reference_dgemm
	.section	.text.unlikely
.LCOLDE2:
	.text
.LHOTE2:
	.section	.text.unlikely
.LCOLDB4:
	.text
.LHOTB4:
	.p2align 4,,15
	.globl	wall_time
	.type	wall_time, @function
wall_time:
.LFB2284:
	.loc 1 33 0
	.cfi_startproc
	pushq	%rbp
	.cfi_def_cfa_offset 16
	.cfi_offset 6, -16
	movq	%rsp, %rbp
	.cfi_def_cfa_register 6
	subq	$32, %rsp
	call	mcount
	.loc 1 33 0
	.loc 1 40 0
	movl	$1, %edi
	.loc 1 33 0
	movq	%fs:40, %rax
	movq	%rax, -8(%rbp)
	xorl	%eax, %eax
	.loc 1 40 0
	leaq	-32(%rbp), %rsi
	call	clock_gettime
.LVL11:
	.loc 1 41 0
	vxorpd	%xmm0, %xmm0, %xmm0
	vxorpd	%xmm3, %xmm3, %xmm3
	.loc 1 43 0
	movq	-8(%rbp), %rax
	xorq	%fs:40, %rax
	.loc 1 41 0
	vcvtsi2sdq	-24(%rbp), %xmm0, %xmm1
	vmulsd	.LC3(%rip), %xmm1, %xmm2
	vcvtsi2sdq	-32(%rbp), %xmm3, %xmm4
	vaddsd	%xmm4, %xmm2, %xmm0
	.loc 1 43 0
	jne	.L6
	leave
	.cfi_remember_state
	.cfi_def_cfa 7, 8
	ret
.L6:
	.cfi_restore_state
	call	__stack_chk_fail
.LVL12:
	.cfi_endproc
.LFE2284:
	.size	wall_time, .-wall_time
	.section	.text.unlikely
.LCOLDE4:
	.text
.LHOTE4:
	.section	.text.unlikely
.LCOLDB5:
	.text
.LHOTB5:
	.p2align 4,,15
	.globl	die
	.type	die, @function
die:
.LFB2285:
	.loc 1 46 0
	.cfi_startproc
.LVL13:
	pushq	%rbp
	.cfi_def_cfa_offset 16
	.cfi_offset 6, -16
	movq	%rsp, %rbp
	.cfi_def_cfa_register 6
	call	mcount
	.loc 1 46 0
	.loc 1 47 0
	call	perror
.LVL14:
	.loc 1 48 0
	movl	$1, %edi
	call	exit
.LVL15:
	.cfi_endproc
.LFE2285:
	.size	die, .-die
	.section	.text.unlikely
.LCOLDE5:
	.text
.LHOTE5:
	.section	.text.unlikely
.LCOLDB6:
	.text
.LHOTB6:
	.p2align 4,,15
	.globl	fill
	.type	fill, @function
fill:
.LFB2286:
	.loc 1 52 0
	.cfi_startproc
.LVL16:
	pushq	%rbp
	.cfi_def_cfa_offset 16
	.cfi_offset 6, -16
	movq	%rsp, %rbp
	.cfi_def_cfa_register 6
	pushq	%r14
	pushq	%r13
	pushq	%r12
	pushq	%rbx
	.cfi_offset 14, -24
	.cfi_offset 13, -32
	.cfi_offset 12, -40
	.cfi_offset 3, -48
	call	mcount
	.loc 1 52 0
.LVL17:
.LBB38:
	.loc 1 53 0
	testl	%esi, %esi
	jle	.L49
	leal	-1(%rsi), %r12d
	movq	%rdi, %r13
	leaq	8(%rdi,%r12,8), %r14
	andl	$7, %r12d
.LVL18:
	.loc 1 54 0
	call	drand48
.LVL19:
	leaq	8(%r13), %rbx
	.loc 1 55 0
	vmovsd	.LC1(%rip), %xmm2
	vmovsd	%xmm2, 0(%r13)
	.loc 1 53 0
	cmpq	%r14, %rbx
	je	.L49
	testq	%r12, %r12
	je	.L10
	cmpq	$1, %r12
	je	.L36
	cmpq	$2, %r12
	je	.L37
	cmpq	$3, %r12
	je	.L38
	cmpq	$4, %r12
	je	.L39
	cmpq	$5, %r12
	je	.L40
	cmpq	$6, %r12
	je	.L41
	.loc 1 54 0
	call	drand48
.LVL20:
	.loc 1 55 0
	vmovsd	.LC1(%rip), %xmm3
	vmovsd	%xmm3, (%rbx)
	leaq	16(%r13), %rbx
.L41:
	.loc 1 54 0
	call	drand48
.LVL21:
	addq	$8, %rbx
	.loc 1 55 0
	vmovsd	.LC1(%rip), %xmm4
	vmovsd	%xmm4, -8(%rbx)
.L40:
	.loc 1 54 0
	call	drand48
.LVL22:
	addq	$8, %rbx
	.loc 1 55 0
	vmovsd	.LC1(%rip), %xmm5
	vmovsd	%xmm5, -8(%rbx)
.L39:
	.loc 1 54 0
	call	drand48
.LVL23:
	addq	$8, %rbx
	.loc 1 55 0
	vmovsd	.LC1(%rip), %xmm6
	vmovsd	%xmm6, -8(%rbx)
.L38:
	.loc 1 54 0
	call	drand48
.LVL24:
	addq	$8, %rbx
	.loc 1 55 0
	vmovsd	.LC1(%rip), %xmm7
	vmovsd	%xmm7, -8(%rbx)
.L37:
	.loc 1 54 0
	call	drand48
.LVL25:
	addq	$8, %rbx
	.loc 1 55 0
	vmovsd	.LC1(%rip), %xmm0
	vmovsd	%xmm0, -8(%rbx)
.L36:
	.loc 1 54 0
	call	drand48
.LVL26:
	addq	$8, %rbx
	.loc 1 55 0
	vmovsd	.LC1(%rip), %xmm1
	vmovsd	%xmm1, -8(%rbx)
	.loc 1 53 0
	cmpq	%r14, %rbx
	je	.L49
.L10:
	.loc 1 54 0 discriminator 3
	call	drand48
.LVL27:
	addq	$64, %rbx
	.loc 1 55 0 discriminator 3
	vmovsd	.LC1(%rip), %xmm8
	vmovsd	%xmm8, -64(%rbx)
	.loc 1 54 0 discriminator 3
	call	drand48
.LVL28:
	.loc 1 55 0 discriminator 3
	vmovsd	.LC1(%rip), %xmm9
	vmovsd	%xmm9, -56(%rbx)
	.loc 1 54 0 discriminator 3
	call	drand48
.LVL29:
	.loc 1 55 0 discriminator 3
	vmovsd	.LC1(%rip), %xmm10
	vmovsd	%xmm10, -48(%rbx)
	.loc 1 54 0 discriminator 3
	call	drand48
.LVL30:
	.loc 1 55 0 discriminator 3
	vmovsd	.LC1(%rip), %xmm11
	vmovsd	%xmm11, -40(%rbx)
	.loc 1 54 0 discriminator 3
	call	drand48
.LVL31:
	.loc 1 55 0 discriminator 3
	vmovsd	.LC1(%rip), %xmm12
	vmovsd	%xmm12, -32(%rbx)
	.loc 1 54 0 discriminator 3
	call	drand48
.LVL32:
	.loc 1 55 0 discriminator 3
	vmovsd	.LC1(%rip), %xmm13
	vmovsd	%xmm13, -24(%rbx)
	.loc 1 54 0 discriminator 3
	call	drand48
.LVL33:
	.loc 1 55 0 discriminator 3
	vmovsd	.LC1(%rip), %xmm14
	vmovsd	%xmm14, -16(%rbx)
	.loc 1 54 0 discriminator 3
	call	drand48
.LVL34:
	.loc 1 55 0 discriminator 3
	vmovsd	.LC1(%rip), %xmm15
	vmovsd	%xmm15, -8(%rbx)
	.loc 1 53 0 discriminator 3
	cmpq	%r14, %rbx
	jne	.L10
.LVL35:
.L49:
.LBE38:
	.loc 1 57 0
	popq	%rbx
	popq	%r12
	popq	%r13
	popq	%r14
	popq	%rbp
	.cfi_def_cfa 7, 8
	ret
	.cfi_endproc
.LFE2286:
	.size	fill, .-fill
	.section	.text.unlikely
.LCOLDE6:
	.text
.LHOTE6:
	.section	.text.unlikely
.LCOLDB9:
	.text
.LHOTB9:
	.p2align 4,,15
	.globl	absolute_value
	.type	absolute_value, @function
absolute_value:
.LFB2287:
	.loc 1 60 0
	.cfi_startproc
.LVL36:
	leaq	8(%rsp), %r10
	.cfi_def_cfa 10, 0
	andq	$-32, %rsp
	pushq	-8(%r10)
	pushq	%rbp
	.cfi_escape 0x10,0x6,0x2,0x76,0
	movq	%rsp, %rbp
	pushq	%r10
	.cfi_escape 0xf,0x3,0x76,0x78,0x6
	pushq	%rbx
	.cfi_escape 0x10,0x3,0x2,0x76,0x70
	call	mcount
	.loc 1 60 0
.LVL37:
.LBB39:
	.loc 1 61 0
	testl	%esi, %esi
	jle	.L108
	movq	%rdi, %rax
	andl	$31, %eax
	shrq	$3, %rax
	negq	%rax
	andl	$3, %eax
	cmpl	%esi, %eax
	cmova	%esi, %eax
	cmpl	$4, %esi
	jg	.L109
	movl	%esi, %eax
.L62:
	.loc 1 62 0
	vmovsd	(%rdi), %xmm1
	.loc 1 61 0
	movl	$1, %edx
	.loc 1 62 0
	vmovsd	.LC7(%rip), %xmm0
	vandpd	%xmm0, %xmm1, %xmm2
	vmovsd	%xmm2, (%rdi)
.LVL38:
	cmpl	$1, %eax
	je	.L54
	vmovsd	8(%rdi), %xmm3
	.loc 1 61 0
	movb	$2, %dl
	.loc 1 62 0
	vandpd	%xmm0, %xmm3, %xmm4
	vmovsd	%xmm4, 8(%rdi)
.LVL39:
	cmpl	$2, %eax
	je	.L54
	vmovsd	16(%rdi), %xmm5
	.loc 1 61 0
	movb	$3, %dl
	.loc 1 62 0
	vandpd	%xmm0, %xmm5, %xmm6
	vmovsd	%xmm6, 16(%rdi)
.LVL40:
	cmpl	$4, %eax
	jne	.L54
	vmovsd	24(%rdi), %xmm7
	.loc 1 61 0
	movb	$4, %dl
	.loc 1 62 0
	vandpd	%xmm7, %xmm0, %xmm8
	vmovsd	%xmm8, 24(%rdi)
.LVL41:
.L54:
	cmpl	%eax, %esi
	je	.L108
.L53:
	leal	-1(%rsi), %ecx
	movl	%esi, %r11d
	movl	%eax, %r9d
	subl	%eax, %r11d
	subl	%eax, %ecx
	leal	-4(%r11), %r8d
	shrl	$2, %r8d
	leal	1(%r8), %r10d
	leal	0(,%r10,4), %ebx
	cmpl	$2, %ecx
	jbe	.L56
	leaq	(%rdi,%r9,8), %rcx
	andl	$7, %r8d
	movl	$32, %eax
	vmovapd	.LC8(%rip), %ymm9
	movl	$1, %r9d
	vandpd	(%rcx), %ymm9, %ymm10
	vmovapd	%ymm10, (%rcx)
	cmpl	$1, %r10d
	jbe	.L106
	testl	%r8d, %r8d
	je	.L57
	cmpl	$1, %r8d
	je	.L91
	cmpl	$2, %r8d
	je	.L92
	cmpl	$3, %r8d
	je	.L93
	cmpl	$4, %r8d
	je	.L94
	cmpl	$5, %r8d
	je	.L95
	cmpl	$6, %r8d
	je	.L96
	vandpd	32(%rcx), %ymm9, %ymm11
	movl	$2, %r9d
	vmovapd	%ymm11, 32(%rcx)
	movl	$64, %eax
.L96:
	vandpd	(%rcx,%rax), %ymm9, %ymm12
	addl	$1, %r9d
	vmovapd	%ymm12, (%rcx,%rax)
	addq	$32, %rax
.L95:
	vandpd	(%rcx,%rax), %ymm9, %ymm13
	addl	$1, %r9d
	vmovapd	%ymm13, (%rcx,%rax)
	addq	$32, %rax
.L94:
	vandpd	(%rcx,%rax), %ymm9, %ymm14
	addl	$1, %r9d
	vmovapd	%ymm14, (%rcx,%rax)
	addq	$32, %rax
.L93:
	vandpd	(%rcx,%rax), %ymm9, %ymm15
	addl	$1, %r9d
	vmovapd	%ymm15, (%rcx,%rax)
	addq	$32, %rax
.L92:
	vandpd	(%rcx,%rax), %ymm9, %ymm1
	addl	$1, %r9d
	vmovapd	%ymm1, (%rcx,%rax)
	addq	$32, %rax
.L91:
	addl	$1, %r9d
	vandpd	(%rcx,%rax), %ymm9, %ymm0
	vmovapd	%ymm0, (%rcx,%rax)
	addq	$32, %rax
	cmpl	%r9d, %r10d
	ja	.L57
.L106:
	addl	%ebx, %edx
	cmpl	%ebx, %r11d
	je	.L107
	vzeroupper
.L56:
.LVL42:
	vmovsd	.LC7(%rip), %xmm11
	.loc 1 61 0
	leal	1(%rdx), %eax
.LVL43:
	.loc 1 62 0
	movslq	%edx, %r8
	leaq	(%rdi,%r8,8), %r10
	vmovsd	(%r10), %xmm9
	vandpd	%xmm11, %xmm9, %xmm12
	vmovsd	%xmm12, (%r10)
	.loc 1 61 0
	cmpl	%eax, %esi
	jle	.L108
	.loc 1 62 0
	cltq
	.loc 1 61 0
	addl	$2, %edx
	.loc 1 62 0
	leaq	(%rdi,%rax,8), %rcx
	vmovsd	(%rcx), %xmm13
	vandpd	%xmm11, %xmm13, %xmm14
	vmovsd	%xmm14, (%rcx)
.LVL44:
	.loc 1 61 0
	cmpl	%edx, %esi
	jle	.L108
	.loc 1 62 0
	movslq	%edx, %rsi
.LVL45:
	leaq	(%rdi,%rsi,8), %rdi
.LVL46:
	vmovsd	(%rdi), %xmm15
	vandpd	%xmm15, %xmm11, %xmm1
	vmovsd	%xmm1, (%rdi)
.L108:
.LBE39:
	.loc 1 63 0
	popq	%rbx
	popq	%r9
	.cfi_remember_state
	.cfi_def_cfa 10, 0
	popq	%rbp
	leaq	-8(%r9), %rsp
	.cfi_def_cfa 7, 8
	ret
.LVL47:
	.p2align 4,,10
	.p2align 3
.L109:
	.cfi_restore_state
	testl	%eax, %eax
	jne	.L62
.LBB40:
	.loc 1 61 0
	xorl	%edx, %edx
	jmp	.L53
.LVL48:
	.p2align 4,,10
	.p2align 3
.L107:
	vzeroupper
.LBE40:
	.loc 1 63 0
	popq	%rbx
	popq	%r9
	.cfi_remember_state
	.cfi_def_cfa 10, 0
	popq	%rbp
	leaq	-8(%r9), %rsp
	.cfi_def_cfa 7, 8
	ret
	.p2align 4,,10
	.p2align 3
.L57:
	.cfi_restore_state
	addl	$8, %r9d
.LBB41:
	.loc 1 62 0 discriminator 3
	vandpd	(%rcx,%rax), %ymm9, %ymm2
	vandpd	32(%rcx,%rax), %ymm9, %ymm3
	vandpd	64(%rcx,%rax), %ymm9, %ymm4
	vandpd	96(%rcx,%rax), %ymm9, %ymm5
	vmovapd	%ymm2, (%rcx,%rax)
	vandpd	128(%rcx,%rax), %ymm9, %ymm6
	vandpd	160(%rcx,%rax), %ymm9, %ymm7
	vandpd	192(%rcx,%rax), %ymm9, %ymm8
	vmovapd	%ymm3, 32(%rcx,%rax)
	vandpd	224(%rcx,%rax), %ymm9, %ymm10
	vmovapd	%ymm4, 64(%rcx,%rax)
	vmovapd	%ymm5, 96(%rcx,%rax)
	vmovapd	%ymm6, 128(%rcx,%rax)
	vmovapd	%ymm7, 160(%rcx,%rax)
	vmovapd	%ymm8, 192(%rcx,%rax)
	vmovapd	%ymm10, 224(%rcx,%rax)
	addq	$256, %rax
	cmpl	%r9d, %r10d
	ja	.L57
	jmp	.L106
.LBE41:
	.cfi_endproc
.LFE2287:
	.size	absolute_value, .-absolute_value
	.section	.text.unlikely
.LCOLDE9:
	.text
.LHOTE9:
	.section	.rodata.str1.1,"aMS",@progbits,1
.LC10:
	.string	"%.3f\t "
	.section	.text.unlikely
.LCOLDB11:
	.text
.LHOTB11:
	.p2align 4,,15
	.globl	printmatrix
	.type	printmatrix, @function
printmatrix:
.LFB2288:
	.loc 1 65 0
	.cfi_startproc
.LVL49:
	pushq	%rbp
	.cfi_def_cfa_offset 16
	.cfi_offset 6, -16
	movq	%rsp, %rbp
	.cfi_def_cfa_register 6
	pushq	%r15
	pushq	%r14
	pushq	%r13
	pushq	%r12
	pushq	%rbx
	subq	$24, %rsp
	.cfi_offset 15, -24
	.cfi_offset 14, -32
	.cfi_offset 13, -40
	.cfi_offset 12, -48
	.cfi_offset 3, -56
	call	mcount
	.loc 1 65 0
.LVL50:
.LBB42:
	.loc 1 66 0
	testl	%edi, %edi
	jle	.L111
	leal	-1(%rdi), %eax
	movq	%rdx, %r13
	movslq	%edi, %rdi
	leaq	8(%rdx,%rax,8), %rdx
.LVL51:
	movl	%esi, %r14d
	movq	%rdx, -64(%rbp)
	leaq	0(,%rdi,8), %r12
.LVL52:
	.p2align 4,,10
	.p2align 3
.L112:
.LBB43:
	.loc 1 68 0 discriminator 1
	testl	%r14d, %r14d
	jle	.L114
	leal	-1(%r14), %ecx
.LBB44:
.LBB45:
	.file 2 "/usr/include/bits/stdio2.h"
	.loc 2 104 0 discriminator 3
	vmovsd	0(%r13), %xmm0
	movl	$.LC10, %esi
	movl	$1, %edi
	andl	$7, %ecx
	movl	$1, %eax
.LBE45:
.LBE44:
	.loc 1 68 0 discriminator 3
	movl	$1, %r15d
	movl	%ecx, -52(%rbp)
.LVL53:
	leaq	0(%r13,%r12), %rbx
.LBB57:
.LBB46:
	.loc 2 104 0 discriminator 3
	call	__printf_chk
.LVL54:
.LBE46:
.LBE57:
	.loc 1 68 0 discriminator 3
	cmpl	%r14d, %r15d
	movl	-52(%rbp), %esi
	je	.L114
	testl	%esi, %esi
	je	.L116
	cmpl	$1, %esi
	je	.L141
	cmpl	$2, %esi
	je	.L142
	cmpl	$3, %esi
	je	.L143
	cmpl	$4, %esi
	je	.L144
	cmpl	$5, %esi
	je	.L145
	cmpl	$6, %esi
	je	.L146
.LBB58:
.LBB47:
	.loc 2 104 0
	vmovsd	(%rbx), %xmm0
	movl	$.LC10, %esi
	movl	$1, %edi
	movl	$1, %eax
.LBE47:
.LBE58:
	.loc 1 68 0
	movl	$2, %r15d
	addq	%r12, %rbx
.LBB59:
.LBB48:
	.loc 2 104 0
	call	__printf_chk
.LVL55:
.L146:
	vmovsd	(%rbx), %xmm0
	movl	$.LC10, %esi
.LBE48:
.LBE59:
	.loc 1 68 0
	addl	$1, %r15d
	addq	%r12, %rbx
.LBB60:
.LBB49:
	.loc 2 104 0
	movl	$1, %edi
	movl	$1, %eax
	call	__printf_chk
.LVL56:
.L145:
	vmovsd	(%rbx), %xmm0
	movl	$.LC10, %esi
.LBE49:
.LBE60:
	.loc 1 68 0
	addl	$1, %r15d
	addq	%r12, %rbx
.LBB61:
.LBB50:
	.loc 2 104 0
	movl	$1, %edi
	movl	$1, %eax
	call	__printf_chk
.LVL57:
.L144:
	vmovsd	(%rbx), %xmm0
	movl	$.LC10, %esi
.LBE50:
.LBE61:
	.loc 1 68 0
	addl	$1, %r15d
	addq	%r12, %rbx
.LBB62:
.LBB51:
	.loc 2 104 0
	movl	$1, %edi
	movl	$1, %eax
	call	__printf_chk
.LVL58:
.L143:
	vmovsd	(%rbx), %xmm0
	movl	$.LC10, %esi
.LBE51:
.LBE62:
	.loc 1 68 0
	addl	$1, %r15d
	addq	%r12, %rbx
.LBB63:
.LBB52:
	.loc 2 104 0
	movl	$1, %edi
	movl	$1, %eax
	call	__printf_chk
.LVL59:
.L142:
	vmovsd	(%rbx), %xmm0
	movl	$.LC10, %esi
.LBE52:
.LBE63:
	.loc 1 68 0
	addl	$1, %r15d
	addq	%r12, %rbx
.LBB64:
.LBB53:
	.loc 2 104 0
	movl	$1, %edi
	movl	$1, %eax
	call	__printf_chk
.LVL60:
.L141:
	vmovsd	(%rbx), %xmm0
	movl	$.LC10, %esi
.LBE53:
.LBE64:
	.loc 1 68 0
	addl	$1, %r15d
	addq	%r12, %rbx
.LBB65:
.LBB54:
	.loc 2 104 0
	movl	$1, %edi
	movl	$1, %eax
	call	__printf_chk
.LVL61:
.LBE54:
.LBE65:
	.loc 1 68 0
	cmpl	%r14d, %r15d
	je	.L114
.L116:
.LBB66:
.LBB55:
	.loc 2 104 0 discriminator 3
	vmovsd	(%rbx), %xmm0
	movl	$.LC10, %esi
	movl	$1, %edi
	addq	%r12, %rbx
	movl	$1, %eax
.LBE55:
.LBE66:
	.loc 1 68 0 discriminator 3
	addl	$8, %r15d
.LBB67:
.LBB56:
	.loc 2 104 0 discriminator 3
	call	__printf_chk
.LVL62:
	vmovsd	(%rbx), %xmm0
	movl	$.LC10, %esi
	addq	%r12, %rbx
	movl	$1, %edi
	movl	$1, %eax
	call	__printf_chk
.LVL63:
	vmovsd	(%rbx), %xmm0
	movl	$.LC10, %esi
	addq	%r12, %rbx
	movl	$1, %edi
	movl	$1, %eax
	call	__printf_chk
.LVL64:
	vmovsd	(%rbx), %xmm0
	movl	$.LC10, %esi
	addq	%r12, %rbx
	movl	$1, %edi
	movl	$1, %eax
	call	__printf_chk
.LVL65:
	vmovsd	(%rbx), %xmm0
	movl	$.LC10, %esi
	addq	%r12, %rbx
	movl	$1, %edi
	movl	$1, %eax
	call	__printf_chk
.LVL66:
	vmovsd	(%rbx), %xmm0
	movl	$.LC10, %esi
	addq	%r12, %rbx
	movl	$1, %edi
	movl	$1, %eax
	call	__printf_chk
.LVL67:
	vmovsd	(%rbx), %xmm0
	movl	$.LC10, %esi
	addq	%r12, %rbx
	movl	$1, %edi
	movl	$1, %eax
	call	__printf_chk
.LVL68:
	vmovsd	(%rbx), %xmm0
	movl	$.LC10, %esi
	addq	%r12, %rbx
	movl	$1, %edi
	movl	$1, %eax
	call	__printf_chk
.LVL69:
.LBE56:
.LBE67:
	.loc 1 68 0 discriminator 3
	cmpl	%r14d, %r15d
	jne	.L116
.LVL70:
.L114:
.LBE43:
.LBB68:
.LBB69:
	.loc 2 104 0
	movl	$10, %edi
	addq	$8, %r13
	call	putchar
.LVL71:
.LBE69:
.LBE68:
	.loc 1 66 0
	cmpq	-64(%rbp), %r13
	jne	.L112
.LVL72:
.L111:
.LBE42:
	.loc 1 73 0
	addq	$24, %rsp
.LBB70:
.LBB71:
	.loc 2 104 0
	movl	$10, %edi
.LBE71:
.LBE70:
	.loc 1 73 0
	popq	%rbx
	popq	%r12
	popq	%r13
	popq	%r14
	popq	%r15
	popq	%rbp
	.cfi_def_cfa 7, 8
.LBB73:
.LBB72:
	.loc 2 104 0
	jmp	putchar
.LVL73:
.LBE72:
.LBE73:
	.cfi_endproc
.LFE2288:
	.size	printmatrix, .-printmatrix
	.section	.text.unlikely
.LCOLDE11:
	.text
.LHOTE11:
	.section	.rodata.str1.1
.LC12:
	.string	"Description:\t%s\n\n"
	.section	.rodata.str1.8,"aMS",@progbits,1
	.align 8
.LC13:
	.string	"failed to allocate largest problem size"
	.section	.rodata.str1.1
.LC15:
	.string	"%d\t%.3g\t\t%.3g\t\t%.3g\n"
.LC18:
	.string	"%f\n"
	.section	.rodata.str1.8
	.align 8
.LC19:
	.string	"*** FAILURE *** Error in matrix multiply exceeds componentwise error bounds.\n"
	.align 8
.LC20:
	.string	"Size:\ttestGflops/s\trefGflops/s\tpercent"
	.section	.rodata
	.align 64
.LC0:
	.long	4
	.long	5
	.long	6
	.long	7
	.long	12
	.long	13
	.long	14
	.long	15
	.long	16
	.long	31
	.long	32
	.long	96
	.long	97
	.long	127
	.long	128
	.long	129
	.long	191
	.long	192
	.long	229
	.long	255
	.long	256
	.long	257
	.long	319
	.long	320
	.long	321
	.long	417
	.long	479
	.long	480
	.long	511
	.long	512
	.long	639
	.long	640
	.long	767
	.long	768
	.long	769
	.section	.text.unlikely
.LCOLDB23:
	.section	.text.startup,"ax",@progbits
.LHOTB23:
	.p2align 4,,15
	.globl	main
	.type	main, @function
main:
.LFB2289:
	.loc 1 76 0
	.cfi_startproc
.LVL74:
	leaq	8(%rsp), %r10
	.cfi_def_cfa 10, 0
	andq	$-32, %rsp
	pushq	-8(%r10)
	pushq	%rbp
	.cfi_escape 0x10,0x6,0x2,0x76,0
	movq	%rsp, %rbp
	pushq	%r15
	pushq	%r14
	pushq	%r13
	pushq	%r12
	pushq	%r10
	.cfi_escape 0xf,0x3,0x76,0x58,0x6
	.cfi_escape 0x10,0xf,0x2,0x76,0x78
	.cfi_escape 0x10,0xe,0x2,0x76,0x70
	.cfi_escape 0x10,0xd,0x2,0x76,0x68
	.cfi_escape 0x10,0xc,0x2,0x76,0x60
	pushq	%rbx
	subq	$320, %rsp
	.cfi_escape 0x10,0x3,0x2,0x76,0x50
	call	mcount
	.loc 1 76 0
.LBB125:
.LBB126:
	.loc 2 104 0
	movq	dgemm_desc(%rip), %rdx
	movl	$.LC12, %esi
.LVL75:
	movl	$1, %edi
.LVL76:
.LBE126:
.LBE125:
	.loc 1 76 0
	movq	%fs:40, %rax
	movq	%rax, -56(%rbp)
	xorl	%eax, %eax
.LVL77:
.LBB128:
.LBB127:
	.loc 2 104 0
	call	__printf_chk
.LVL78:
.LBE127:
.LBE128:
	.loc 1 86 0
	movl	$140, %edx
	movl	$.LC0, %esi
	leaq	-208(%rbp), %rdi
	call	memcpy
.LVL79:
	.loc 1 97 0
	movl	-72(%rbp), %ebx
.LVL80:
.LBB129:
.LBB130:
	.file 3 "/usr/lib/gcc/x86_64-pc-linux-gnu/4.9.3/include/mm_malloc.h"
	.loc 3 45 0
	movl	$64, %esi
	leaq	-232(%rbp), %rdi
.LBE130:
.LBE129:
	.loc 1 101 0
	imull	%ebx, %ebx
.LVL81:
	leal	(%rbx,%rbx,2), %edx
	movslq	%edx, %rdx
	salq	$3, %rdx
.LBB132:
.LBB131:
	.loc 3 45 0
	call	posix_memalign
.LVL82:
	testl	%eax, %eax
	je	.L574
.LVL83:
.L155:
.LBE131:
.LBE132:
	.loc 1 102 0 discriminator 1
	movl	$.LC13, %edi
	call	die
.LVL84:
	.p2align 4,,10
	.p2align 3
.L574:
	movq	-232(%rbp), %r15
.LVL85:
	.loc 1 102 0 is_stmt 0
	testq	%r15, %r15
	je	.L155
.LVL86:
.LBB133:
.LBB134:
	.loc 2 104 0 is_stmt 1
	movl	$.LC20, %edi
	call	puts
.LVL87:
	leaq	-208(%rbp), %rsi
	movslq	%ebx, %rax
	leaq	0(,%rax,8), %rbx
.LVL88:
	movq	%rsi, -288(%rbp)
	movq	-288(%rbp), %r11
	movq	%rax, %rcx
	leaq	(%r15,%rbx), %r12
	addq	$140, %rsi
	addq	%rax, %rcx
	movq	%rax, -336(%rbp)
	addq	%r12, %rbx
	movq	%r12, %rdi
	movq	%rsi, -320(%rbp)
	movq	%rbx, %r8
	andl	$31, %edi
	movq	%rcx, -344(%rbp)
	andl	$31, %r8d
	shrq	$3, %rdi
	shrq	$3, %r8
	negq	%rdi
	negq	%r8
	andl	$3, %edi
	andl	$3, %r8d
	movl	%edi, -280(%rbp)
	movl	%r8d, -324(%rbp)
.LVL89:
	.p2align 4,,10
	.p2align 3
.L193:
.LBE134:
.LBE133:
.LBB135:
.LBB136:
	.loc 1 111 0
	movl	(%r11), %r8d
	.loc 1 117 0
	movl	%r8d, %r13d
	.loc 1 111 0
	movl	%r8d, -276(%rbp)
.LVL90:
	.loc 1 117 0
	imull	%r8d, %r13d
	movl	%r13d, -272(%rbp)
.LVL91:
.LBB137:
.LBB138:
	.loc 1 53 0
	testl	%r13d, %r13d
	je	.L157
	leal	-1(%r13), %r14d
	leaq	8(,%r14,8), %r14
	leaq	-8(%r14), %rdx
	leaq	(%r15,%r14), %r10
	shrq	$3, %rdx
	movq	%r10, -248(%rbp)
	leaq	8(%r15), %r13
.LVL92:
	andl	$7, %edx
	movq	%rdx, -256(%rbp)
.LVL93:
	.loc 1 54 0
	call	drand48
.LVL94:
	.loc 1 53 0
	cmpq	-248(%rbp), %r13
	.loc 1 55 0
	vmovsd	.LC1(%rip), %xmm4
	.loc 1 53 0
	movq	-256(%rbp), %rax
	.loc 1 55 0
	vmovsd	%xmm4, (%r15)
	.loc 1 53 0
	je	.L527
	testq	%rax, %rax
	je	.L158
	cmpq	$1, %rax
	je	.L457
	cmpq	$2, %rax
	je	.L458
	cmpq	$3, %rax
	je	.L459
	cmpq	$4, %rax
	je	.L460
	cmpq	$5, %rax
	je	.L461
	cmpq	$6, %rax
	je	.L462
	.loc 1 54 0
	call	drand48
.LVL95:
	leaq	16(%r15), %r13
	.loc 1 55 0
	vmovsd	.LC1(%rip), %xmm5
	vmovsd	%xmm5, 8(%r15)
.L462:
	.loc 1 54 0
	call	drand48
.LVL96:
	addq	$8, %r13
	.loc 1 55 0
	vmovsd	.LC1(%rip), %xmm6
	vmovsd	%xmm6, -8(%r13)
.L461:
	.loc 1 54 0
	call	drand48
.LVL97:
	addq	$8, %r13
	.loc 1 55 0
	vmovsd	.LC1(%rip), %xmm3
	vmovsd	%xmm3, -8(%r13)
.L460:
	.loc 1 54 0
	call	drand48
.LVL98:
	addq	$8, %r13
	.loc 1 55 0
	vmovsd	.LC1(%rip), %xmm2
	vmovsd	%xmm2, -8(%r13)
.L459:
	.loc 1 54 0
	call	drand48
.LVL99:
	addq	$8, %r13
	.loc 1 55 0
	vmovsd	.LC1(%rip), %xmm7
	vmovsd	%xmm7, -8(%r13)
.L458:
	.loc 1 54 0
	call	drand48
.LVL100:
	addq	$8, %r13
	.loc 1 55 0
	vmovsd	.LC1(%rip), %xmm0
	vmovsd	%xmm0, -8(%r13)
.L457:
	.loc 1 54 0
	call	drand48
.LVL101:
	addq	$8, %r13
	.loc 1 55 0
	vmovsd	.LC1(%rip), %xmm1
	vmovsd	%xmm1, -8(%r13)
	.loc 1 53 0
	cmpq	-248(%rbp), %r13
	je	.L527
.L158:
	.loc 1 54 0
	call	drand48
.LVL102:
	addq	$64, %r13
	.loc 1 55 0
	vmovsd	.LC1(%rip), %xmm8
	vmovsd	%xmm8, -64(%r13)
	.loc 1 54 0
	call	drand48
.LVL103:
	.loc 1 55 0
	vmovsd	.LC1(%rip), %xmm9
	vmovsd	%xmm9, -56(%r13)
	.loc 1 54 0
	call	drand48
.LVL104:
	.loc 1 55 0
	vmovsd	.LC1(%rip), %xmm10
	vmovsd	%xmm10, -48(%r13)
	.loc 1 54 0
	call	drand48
.LVL105:
	.loc 1 55 0
	vmovsd	.LC1(%rip), %xmm11
	vmovsd	%xmm11, -40(%r13)
	.loc 1 54 0
	call	drand48
.LVL106:
	.loc 1 55 0
	vmovsd	.LC1(%rip), %xmm12
	vmovsd	%xmm12, -32(%r13)
	.loc 1 54 0
	call	drand48
.LVL107:
	.loc 1 55 0
	vmovsd	.LC1(%rip), %xmm13
	vmovsd	%xmm13, -24(%r13)
	.loc 1 54 0
	call	drand48
.LVL108:
	.loc 1 55 0
	vmovsd	.LC1(%rip), %xmm14
	vmovsd	%xmm14, -16(%r13)
	.loc 1 54 0
	call	drand48
.LVL109:
	.loc 1 55 0
	vmovsd	.LC1(%rip), %xmm15
	vmovsd	%xmm15, -8(%r13)
	.loc 1 53 0
	cmpq	-248(%rbp), %r13
	jne	.L158
.L527:
	leaq	-8(%r14), %rcx
	leaq	(%r12,%r14), %r13
	shrq	$3, %rcx
	leaq	8(%r12), %r14
	andl	$7, %ecx
	movq	%rcx, -248(%rbp)
.LBE138:
.LBE137:
.LBB139:
.LBB140:
	.loc 1 54 0
	call	drand48
.LVL110:
	.loc 1 53 0
	cmpq	%r13, %r14
	movq	-248(%rbp), %rsi
	.loc 1 55 0
	vmovsd	.LC1(%rip), %xmm4
	vmovsd	%xmm4, (%r12)
.LVL111:
	.loc 1 53 0
	je	.L528
	testq	%rsi, %rsi
	je	.L159
	cmpq	$1, %rsi
	je	.L451
	cmpq	$2, %rsi
	je	.L452
	cmpq	$3, %rsi
	je	.L453
	cmpq	$4, %rsi
	je	.L454
	cmpq	$5, %rsi
	je	.L455
	cmpq	$6, %rsi
	je	.L456
	.loc 1 54 0
	call	drand48
.LVL112:
	leaq	16(%r12), %r14
	.loc 1 55 0
	vmovsd	.LC1(%rip), %xmm5
	vmovsd	%xmm5, 8(%r12)
.L456:
	.loc 1 54 0
	call	drand48
.LVL113:
	addq	$8, %r14
	.loc 1 55 0
	vmovsd	.LC1(%rip), %xmm6
	vmovsd	%xmm6, -8(%r14)
.L455:
	.loc 1 54 0
	call	drand48
.LVL114:
	addq	$8, %r14
	.loc 1 55 0
	vmovsd	.LC1(%rip), %xmm3
	vmovsd	%xmm3, -8(%r14)
.L454:
	.loc 1 54 0
	call	drand48
.LVL115:
	addq	$8, %r14
	.loc 1 55 0
	vmovsd	.LC1(%rip), %xmm2
	vmovsd	%xmm2, -8(%r14)
.L453:
	.loc 1 54 0
	call	drand48
.LVL116:
	addq	$8, %r14
	.loc 1 55 0
	vmovsd	.LC1(%rip), %xmm7
	vmovsd	%xmm7, -8(%r14)
.L452:
	.loc 1 54 0
	call	drand48
.LVL117:
	addq	$8, %r14
	.loc 1 55 0
	vmovsd	.LC1(%rip), %xmm0
	vmovsd	%xmm0, -8(%r14)
.L451:
	.loc 1 54 0
	call	drand48
.LVL118:
	addq	$8, %r14
	.loc 1 55 0
	vmovsd	.LC1(%rip), %xmm1
	vmovsd	%xmm1, -8(%r14)
	.loc 1 53 0
	cmpq	%r13, %r14
	je	.L528
.L159:
	.loc 1 54 0
	call	drand48
.LVL119:
	addq	$64, %r14
	.loc 1 55 0
	vmovsd	.LC1(%rip), %xmm8
	vmovsd	%xmm8, -64(%r14)
	.loc 1 54 0
	call	drand48
.LVL120:
	.loc 1 55 0
	vmovsd	.LC1(%rip), %xmm9
	vmovsd	%xmm9, -56(%r14)
	.loc 1 54 0
	call	drand48
.LVL121:
	.loc 1 55 0
	vmovsd	.LC1(%rip), %xmm10
	vmovsd	%xmm10, -48(%r14)
	.loc 1 54 0
	call	drand48
.LVL122:
	.loc 1 55 0
	vmovsd	.LC1(%rip), %xmm11
	vmovsd	%xmm11, -40(%r14)
	.loc 1 54 0
	call	drand48
.LVL123:
	.loc 1 55 0
	vmovsd	.LC1(%rip), %xmm12
	vmovsd	%xmm12, -32(%r14)
	.loc 1 54 0
	call	drand48
.LVL124:
	.loc 1 55 0
	vmovsd	.LC1(%rip), %xmm13
	vmovsd	%xmm13, -24(%r14)
	.loc 1 54 0
	call	drand48
.LVL125:
	.loc 1 55 0
	vmovsd	.LC1(%rip), %xmm14
	vmovsd	%xmm14, -16(%r14)
	.loc 1 54 0
	call	drand48
.LVL126:
	.loc 1 55 0
	vmovsd	.LC1(%rip), %xmm15
	vmovsd	%xmm15, -8(%r14)
	.loc 1 53 0
	cmpq	%r13, %r14
	jne	.L159
.L528:
	movl	-272(%rbp), %edi
	movl	$1, %r13d
	leal	-1(%rdi), %r14d
.LBE140:
.LBE139:
.LBB142:
.LBB143:
	.loc 1 54 0
	call	drand48
.LVL127:
	andl	$7, %r14d
.LVL128:
	.loc 1 53 0
	cmpl	$1, -272(%rbp)
	.loc 1 55 0
	vmovsd	.LC1(%rip), %xmm4
	vmovsd	%xmm4, (%rbx)
.LVL129:
	.loc 1 53 0
	jle	.L571
	testl	%r14d, %r14d
	je	.L160
	cmpl	$1, %r14d
	je	.L445
	cmpl	$2, %r14d
	je	.L446
	cmpl	$3, %r14d
	je	.L447
	cmpl	$4, %r14d
	je	.L448
	cmpl	$5, %r14d
	je	.L449
	cmpl	$6, %r14d
	je	.L450
.LVL130:
	.loc 1 54 0
	call	drand48
.LVL131:
	movl	$2, %r13d
	.loc 1 55 0
	vmovsd	.LC1(%rip), %xmm5
	vmovsd	%xmm5, 8(%rbx)
.LVL132:
.L450:
	.loc 1 54 0
	call	drand48
.LVL133:
	.loc 1 55 0
	vmovsd	.LC1(%rip), %xmm6
	vmovsd	%xmm6, (%rbx,%r13,8)
.LVL134:
	addq	$1, %r13
.LVL135:
.L449:
	.loc 1 54 0
	call	drand48
.LVL136:
	.loc 1 55 0
	vmovsd	.LC1(%rip), %xmm3
	vmovsd	%xmm3, (%rbx,%r13,8)
.LVL137:
	addq	$1, %r13
.LVL138:
.L448:
	.loc 1 54 0
	call	drand48
.LVL139:
	.loc 1 55 0
	vmovsd	.LC1(%rip), %xmm2
	vmovsd	%xmm2, (%rbx,%r13,8)
.LVL140:
	addq	$1, %r13
.LVL141:
.L447:
	.loc 1 54 0
	call	drand48
.LVL142:
	.loc 1 55 0
	vmovsd	.LC1(%rip), %xmm7
	vmovsd	%xmm7, (%rbx,%r13,8)
.LVL143:
	addq	$1, %r13
.LVL144:
.L446:
	.loc 1 54 0
	call	drand48
.LVL145:
	.loc 1 55 0
	vmovsd	.LC1(%rip), %xmm0
	vmovsd	%xmm0, (%rbx,%r13,8)
.LVL146:
	addq	$1, %r13
.LVL147:
.L445:
	.loc 1 54 0
	call	drand48
.LVL148:
	.loc 1 55 0
	vmovsd	.LC1(%rip), %xmm1
	vmovsd	%xmm1, (%rbx,%r13,8)
.LVL149:
	addq	$1, %r13
	.loc 1 53 0
	cmpl	%r13d, -272(%rbp)
	jle	.L571
.LVL150:
.L160:
	.loc 1 54 0
	call	drand48
.LVL151:
	.loc 1 55 0
	vmovsd	.LC1(%rip), %xmm8
	leaq	1(%r13), %r14
	vmovsd	%xmm8, (%rbx,%r13,8)
.LVL152:
	.loc 1 54 0
	call	drand48
.LVL153:
	.loc 1 55 0
	vmovsd	.LC1(%rip), %xmm9
	vmovsd	%xmm9, (%rbx,%r14,8)
.LVL154:
	leaq	2(%r13), %r14
.LVL155:
	.loc 1 54 0
	call	drand48
.LVL156:
	.loc 1 55 0
	vmovsd	.LC1(%rip), %xmm10
	vmovsd	%xmm10, (%rbx,%r14,8)
.LVL157:
	leaq	3(%r13), %r14
.LVL158:
	.loc 1 54 0
	call	drand48
.LVL159:
	.loc 1 55 0
	vmovsd	.LC1(%rip), %xmm11
	vmovsd	%xmm11, (%rbx,%r14,8)
.LVL160:
	leaq	4(%r13), %r14
.LVL161:
	.loc 1 54 0
	call	drand48
.LVL162:
	.loc 1 55 0
	vmovsd	.LC1(%rip), %xmm12
	vmovsd	%xmm12, (%rbx,%r14,8)
.LVL163:
	leaq	5(%r13), %r14
.LVL164:
	.loc 1 54 0
	call	drand48
.LVL165:
	.loc 1 55 0
	vmovsd	.LC1(%rip), %xmm13
	vmovsd	%xmm13, (%rbx,%r14,8)
.LVL166:
	leaq	6(%r13), %r14
.LVL167:
	.loc 1 54 0
	call	drand48
.LVL168:
	.loc 1 55 0
	vmovsd	.LC1(%rip), %xmm14
	vmovsd	%xmm14, (%rbx,%r14,8)
.LVL169:
	leaq	7(%r13), %r14
.LVL170:
	addq	$8, %r13
	.loc 1 54 0
	call	drand48
.LVL171:
	.loc 1 55 0
	vmovsd	.LC1(%rip), %xmm15
	vmovsd	%xmm15, (%rbx,%r14,8)
.LVL172:
	.loc 1 53 0
	cmpl	%r13d, -272(%rbp)
	jg	.L160
.LVL173:
.L571:
	movl	-276(%rbp), %r8d
.L157:
.LVL174:
	vxorpd	%xmm4, %xmm4, %xmm4
	vcvtsi2sd	%r8d, %xmm4, %xmm5
.LBE143:
.LBE142:
.LBB144:
.LBB141:
	movl	$1, %r9d
	movl	%r9d, -248(%rbp)
	movl	%r8d, %r14d
	vmulsd	%xmm5, %xmm5, %xmm6
	vmovsd	%xmm5, -296(%rbp)
	vmulsd	%xmm5, %xmm6, %xmm3
	vmovsd	%xmm3, -304(%rbp)
.LVL175:
	.p2align 4,,10
	.p2align 3
.L162:
.LBE141:
.LBE144:
.LBB145:
	.loc 1 129 0
	movq	%rbx, %rcx
	movq	%r12, %rdx
	movq	%r15, %rsi
	movl	%r14d, %edi
.LBB146:
	.loc 1 133 0
	movl	$1, %r13d
.LBE146:
	.loc 1 129 0
	call	square_dgemm
.LVL176:
.LBB147:
.LBB148:
	.loc 1 40 0
	leaq	-224(%rbp), %rsi
	movl	$1, %edi
	call	clock_gettime
.LVL177:
	.loc 1 41 0
	vxorpd	%xmm0, %xmm0, %xmm0
	vxorpd	%xmm2, %xmm2, %xmm2
.LBE148:
.LBE147:
.LBB150:
	.loc 1 134 0
	movq	%rbx, %rcx
	movl	-248(%rbp), %r11d
	movq	%r12, %rdx
	movq	%r15, %rsi
	movl	%r14d, %edi
.LBE150:
.LBB151:
.LBB149:
	.loc 1 41 0
	vcvtsi2sdq	-216(%rbp), %xmm0, %xmm1
	vmulsd	.LC3(%rip), %xmm1, %xmm8
	vcvtsi2sdq	-224(%rbp), %xmm2, %xmm7
	subl	$1, %r11d
	andl	$7, %r11d
	movl	%r11d, -268(%rbp)
	vmovsd	%xmm7, -256(%rbp)
	vmovsd	%xmm8, -264(%rbp)
.LVL178:
.LBE149:
.LBE151:
.LBB152:
	.loc 1 134 0
	call	square_dgemm
.LVL179:
	.loc 1 133 0
	cmpl	-248(%rbp), %r13d
	movl	-268(%rbp), %r10d
	je	.L529
	testl	%r10d, %r10d
	je	.L161
	cmpl	$1, %r10d
	je	.L439
	cmpl	$2, %r10d
	je	.L440
	cmpl	$3, %r10d
	je	.L441
	cmpl	$4, %r10d
	je	.L442
	cmpl	$5, %r10d
	je	.L443
	cmpl	$6, %r10d
	je	.L444
	.loc 1 134 0
	movq	%rbx, %rcx
	movq	%r12, %rdx
	movq	%r15, %rsi
	movl	%r14d, %edi
	.loc 1 133 0
	movl	$2, %r13d
	.loc 1 134 0
	call	square_dgemm
.LVL180:
.L444:
	movq	%rbx, %rcx
	movq	%r12, %rdx
	movq	%r15, %rsi
	movl	%r14d, %edi
	.loc 1 133 0
	addl	$1, %r13d
	.loc 1 134 0
	call	square_dgemm
.LVL181:
.L443:
	movq	%rbx, %rcx
	movq	%r12, %rdx
	movq	%r15, %rsi
	movl	%r14d, %edi
	.loc 1 133 0
	addl	$1, %r13d
	.loc 1 134 0
	call	square_dgemm
.LVL182:
.L442:
	movq	%rbx, %rcx
	movq	%r12, %rdx
	movq	%r15, %rsi
	movl	%r14d, %edi
	.loc 1 133 0
	addl	$1, %r13d
	.loc 1 134 0
	call	square_dgemm
.LVL183:
.L441:
	movq	%rbx, %rcx
	movq	%r12, %rdx
	movq	%r15, %rsi
	movl	%r14d, %edi
	.loc 1 133 0
	addl	$1, %r13d
	.loc 1 134 0
	call	square_dgemm
.LVL184:
.L440:
	movq	%rbx, %rcx
	movq	%r12, %rdx
	movq	%r15, %rsi
	movl	%r14d, %edi
	.loc 1 133 0
	addl	$1, %r13d
	.loc 1 134 0
	call	square_dgemm
.LVL185:
.L439:
	movq	%rbx, %rcx
	movq	%r12, %rdx
	movq	%r15, %rsi
	movl	%r14d, %edi
	.loc 1 133 0
	addl	$1, %r13d
	.loc 1 134 0
	call	square_dgemm
.LVL186:
	.loc 1 133 0
	cmpl	-248(%rbp), %r13d
	je	.L529
.L161:
	.loc 1 134 0 discriminator 3
	movq	%rbx, %rcx
	movq	%r12, %rdx
	movq	%r15, %rsi
	movl	%r14d, %edi
	.loc 1 133 0 discriminator 3
	addl	$8, %r13d
	.loc 1 134 0 discriminator 3
	call	square_dgemm
.LVL187:
	movq	%rbx, %rcx
	movq	%r12, %rdx
	movq	%r15, %rsi
	movl	%r14d, %edi
	call	square_dgemm
.LVL188:
	movq	%rbx, %rcx
	movq	%r12, %rdx
	movq	%r15, %rsi
	movl	%r14d, %edi
	call	square_dgemm
.LVL189:
	movq	%rbx, %rcx
	movq	%r12, %rdx
	movq	%r15, %rsi
	movl	%r14d, %edi
	call	square_dgemm
.LVL190:
	movq	%rbx, %rcx
	movq	%r12, %rdx
	movq	%r15, %rsi
	movl	%r14d, %edi
	call	square_dgemm
.LVL191:
	movq	%rbx, %rcx
	movq	%r12, %rdx
	movq	%r15, %rsi
	movl	%r14d, %edi
	call	square_dgemm
.LVL192:
	movq	%rbx, %rcx
	movq	%r12, %rdx
	movq	%r15, %rsi
	movl	%r14d, %edi
	call	square_dgemm
.LVL193:
	movq	%rbx, %rcx
	movq	%r12, %rdx
	movq	%r15, %rsi
	movl	%r14d, %edi
	call	square_dgemm
.LVL194:
	.loc 1 133 0 discriminator 3
	cmpl	-248(%rbp), %r13d
	jne	.L161
.L529:
.LBE152:
.LBB153:
.LBB154:
	.loc 1 40 0
	leaq	-224(%rbp), %rsi
	movl	$1, %edi
	call	clock_gettime
.LVL195:
	.loc 1 41 0
	vxorpd	%xmm9, %xmm9, %xmm9
	vxorpd	%xmm11, %xmm11, %xmm11
.LBE154:
.LBE153:
	.loc 1 126 0
	vmovsd	.LC14(%rip), %xmm4
.LBB156:
.LBB155:
	.loc 1 41 0
	vcvtsi2sdq	-224(%rbp), %xmm9, %xmm10
	vcvtsi2sdq	-216(%rbp), %xmm11, %xmm12
	vmulsd	.LC3(%rip), %xmm12, %xmm13
	vsubsd	-256(%rbp), %xmm13, %xmm14
.LBE155:
.LBE156:
	.loc 1 126 0
	leal	(%r13,%r13), %edx
	vaddsd	%xmm10, %xmm14, %xmm15
	.loc 1 135 0
	vsubsd	-264(%rbp), %xmm15, %xmm5
.LVL196:
	.loc 1 126 0
	vcomisd	%xmm5, %xmm4
	jbe	.L575
	movl	%edx, -248(%rbp)
	jmp	.L162
	.p2align 4,,10
	.p2align 3
.L575:
	vmovsd	.LC21(%rip), %xmm6
	.loc 1 138 0
	vxorpd	%xmm2, %xmm2, %xmm2
	movl	$1, -248(%rbp)
	vcvtsi2sd	%r13d, %xmm2, %xmm7
	movslq	-276(%rbp), %r14
	vmulsd	-304(%rbp), %xmm6, %xmm3
	vmulsd	%xmm3, %xmm7, %xmm0
	vmovsd	%xmm3, -312(%rbp)
	vdivsd	%xmm5, %xmm0, %xmm1
	vmovsd	%xmm1, -304(%rbp)
.LVL197:
	.p2align 4,,10
	.p2align 3
.L165:
.LBE145:
.LBB157:
.LBB158:
.LBB159:
	.loc 1 24 0
	pushq	%r14
	movq	%r14, %r9
	movq	%r14, %r8
	movq	%r14, %rcx
	pushq	%rbx
	movl	$111, %edx
	movl	$111, %esi
	movl	$102, %edi
	vmovsd	.LC1(%rip), %xmm1
	pushq	%r14
.LBE159:
.LBE158:
.LBB161:
	.loc 1 148 0
	movl	$1, %r13d
.LBE161:
.LBB196:
.LBB160:
	.loc 1 24 0
	pushq	%r12
	vmovapd	%xmm1, %xmm0
	pushq	%r14
	pushq	%r15
	call	cblas_dgemm
.LVL198:
.LBE160:
.LBE196:
.LBB197:
.LBB198:
	.loc 1 40 0
	addq	$48, %rsp
	movl	$1, %edi
	leaq	-224(%rbp), %rsi
	call	clock_gettime
.LVL199:
	movl	-248(%rbp), %eax
.LBE198:
.LBE197:
.LBB204:
.LBB162:
.LBB163:
	.loc 1 24 0
	pushq	%r14
	movq	%r14, %rcx
.LBE163:
.LBE162:
.LBE204:
.LBB205:
.LBB199:
	.loc 1 41 0
	vxorpd	%xmm10, %xmm10, %xmm10
	vxorpd	%xmm8, %xmm8, %xmm8
.LBE199:
.LBE205:
.LBB206:
.LBB180:
.LBB164:
	.loc 1 24 0
	pushq	%rbx
	movq	%r14, %r9
	pushq	%r14
	movq	%r14, %r8
	movl	$111, %edx
	movl	$111, %esi
.LBE164:
.LBE180:
.LBE206:
.LBB207:
.LBB200:
	.loc 1 41 0
	vcvtsi2sdq	-216(%rbp), %xmm10, %xmm11
.LBE200:
.LBE207:
.LBB208:
.LBB181:
.LBB165:
	.loc 1 24 0
	pushq	%r12
	movl	$102, %edi
	vmovsd	.LC1(%rip), %xmm1
.LBE165:
.LBE181:
.LBE208:
.LBB209:
.LBB201:
	.loc 1 41 0
	vmulsd	.LC3(%rip), %xmm11, %xmm12
	subl	$1, %eax
.LBE201:
.LBE209:
.LBB210:
.LBB182:
.LBB166:
	.loc 1 24 0
	pushq	%r14
.LBE166:
.LBE182:
.LBE210:
.LBB211:
.LBB202:
	.loc 1 41 0
	vcvtsi2sdq	-224(%rbp), %xmm8, %xmm9
	andl	$3, %eax
.LBE202:
.LBE211:
.LBB212:
.LBB183:
.LBB167:
	.loc 1 24 0
	pushq	%r15
	vmovapd	%xmm1, %xmm0
	movl	%eax, -268(%rbp)
.LBE167:
.LBE183:
.LBE212:
.LBB213:
.LBB203:
	.loc 1 41 0
	vmovsd	%xmm9, -256(%rbp)
	vmovsd	%xmm12, -264(%rbp)
.LVL200:
.LBE203:
.LBE213:
.LBB214:
.LBB184:
.LBB168:
	.loc 1 24 0
	call	cblas_dgemm
.LVL201:
.LBE168:
.LBE184:
	.loc 1 148 0
	addq	$48, %rsp
	cmpl	-248(%rbp), %r13d
	movl	-268(%rbp), %ecx
	je	.L531
	testl	%ecx, %ecx
	je	.L164
	cmpl	$1, %ecx
	je	.L437
	cmpl	$2, %ecx
	je	.L438
.LBB185:
.LBB169:
	.loc 1 24 0
	pushq	%r14
	movq	%r14, %r9
	movq	%r14, %r8
	movq	%r14, %rcx
	pushq	%rbx
	movl	$111, %edx
	movl	$111, %esi
	movl	$102, %edi
	vmovsd	.LC1(%rip), %xmm1
	pushq	%r14
.LBE169:
.LBE185:
	.loc 1 148 0
	movl	$2, %r13d
.LBB186:
.LBB170:
	.loc 1 24 0
	pushq	%r12
	vmovapd	%xmm1, %xmm0
	pushq	%r14
	pushq	%r15
	call	cblas_dgemm
.LVL202:
.LBE170:
.LBE186:
	.loc 1 148 0
	addq	$48, %rsp
.L438:
.LBB187:
.LBB171:
	.loc 1 24 0
	pushq	%r14
	movq	%r14, %r9
	movq	%r14, %r8
	movq	%r14, %rcx
	pushq	%rbx
	movl	$111, %edx
	movl	$111, %esi
	movl	$102, %edi
	vmovsd	.LC1(%rip), %xmm1
	pushq	%r14
.LBE171:
.LBE187:
	.loc 1 148 0
	addl	$1, %r13d
.LBB188:
.LBB172:
	.loc 1 24 0
	pushq	%r12
	vmovapd	%xmm1, %xmm0
	pushq	%r14
	pushq	%r15
	call	cblas_dgemm
.LVL203:
.LBE172:
.LBE188:
	.loc 1 148 0
	addq	$48, %rsp
.L437:
.LBB189:
.LBB173:
	.loc 1 24 0
	pushq	%r14
	movq	%r14, %r9
	movq	%r14, %r8
	movq	%r14, %rcx
	pushq	%rbx
	movl	$111, %edx
	movl	$111, %esi
	movl	$102, %edi
	vmovsd	.LC1(%rip), %xmm1
	pushq	%r14
.LBE173:
.LBE189:
	.loc 1 148 0
	addl	$1, %r13d
.LBB190:
.LBB174:
	.loc 1 24 0
	pushq	%r12
	vmovapd	%xmm1, %xmm0
	pushq	%r14
	pushq	%r15
	call	cblas_dgemm
.LVL204:
.LBE174:
.LBE190:
	.loc 1 148 0
	addq	$48, %rsp
	cmpl	-248(%rbp), %r13d
	je	.L531
.L164:
.LBB191:
.LBB175:
	.loc 1 24 0
	vmovsd	.LC1(%rip), %xmm1
	pushq	%r14
	movq	%r14, %r9
	movq	%r14, %r8
	pushq	%rbx
	movq	%r14, %rcx
	movl	$111, %edx
	movl	$111, %esi
	pushq	%r14
	vmovapd	%xmm1, %xmm0
	movl	$102, %edi
.LBE175:
.LBE191:
	.loc 1 148 0
	addl	$4, %r13d
.LBB192:
.LBB176:
	.loc 1 24 0
	pushq	%r12
	pushq	%r14
	pushq	%r15
	call	cblas_dgemm
.LVL205:
.LBE176:
.LBE192:
	.loc 1 148 0
	addq	$48, %rsp
.LBB193:
.LBB177:
	.loc 1 24 0
	movq	%r14, %r9
	movq	%r14, %r8
	pushq	%r14
	movq	%r14, %rcx
	movl	$111, %edx
	movl	$111, %esi
	vmovsd	.LC1(%rip), %xmm1
	pushq	%rbx
	movl	$102, %edi
	pushq	%r14
	vmovapd	%xmm1, %xmm0
	pushq	%r12
	pushq	%r14
	pushq	%r15
	call	cblas_dgemm
.LVL206:
.LBE177:
.LBE193:
	.loc 1 148 0
	addq	$48, %rsp
.LBB194:
.LBB178:
	.loc 1 24 0
	movq	%r14, %r9
	movq	%r14, %r8
	pushq	%r14
	movq	%r14, %rcx
	movl	$111, %edx
	movl	$111, %esi
	vmovsd	.LC1(%rip), %xmm1
	pushq	%rbx
	movl	$102, %edi
	pushq	%r14
	vmovapd	%xmm1, %xmm0
	pushq	%r12
	pushq	%r14
	pushq	%r15
	call	cblas_dgemm
.LVL207:
.LBE178:
.LBE194:
	.loc 1 148 0
	addq	$48, %rsp
.LBB195:
.LBB179:
	.loc 1 24 0
	movq	%r14, %r9
	movq	%r14, %r8
	pushq	%r14
	movq	%r14, %rcx
	movl	$111, %edx
	movl	$111, %esi
	vmovsd	.LC1(%rip), %xmm1
	pushq	%rbx
	movl	$102, %edi
	pushq	%r14
	vmovapd	%xmm1, %xmm0
	pushq	%r12
	pushq	%r14
	pushq	%r15
	call	cblas_dgemm
.LVL208:
.LBE179:
.LBE195:
	.loc 1 148 0
	addq	$48, %rsp
	cmpl	-248(%rbp), %r13d
	jne	.L164
.L531:
.LBE214:
.LBB215:
.LBB216:
	.loc 1 40 0
	leaq	-224(%rbp), %rsi
	movl	$1, %edi
	call	clock_gettime
.LVL209:
	.loc 1 41 0
	vxorpd	%xmm13, %xmm13, %xmm13
	vxorpd	%xmm15, %xmm15, %xmm15
.LBE216:
.LBE215:
	.loc 1 141 0
	vmovsd	.LC14(%rip), %xmm7
.LBB218:
.LBB217:
	.loc 1 41 0
	vcvtsi2sdq	-224(%rbp), %xmm13, %xmm14
	vcvtsi2sdq	-216(%rbp), %xmm15, %xmm5
	vmulsd	.LC3(%rip), %xmm5, %xmm4
	vsubsd	-256(%rbp), %xmm4, %xmm6
.LBE217:
.LBE218:
	.loc 1 141 0
	leal	(%r13,%r13), %esi
	vaddsd	%xmm14, %xmm6, %xmm3
	.loc 1 150 0
	vsubsd	-264(%rbp), %xmm3, %xmm2
.LVL210:
	.loc 1 141 0
	vcomisd	%xmm2, %xmm7
	jbe	.L576
	movl	%esi, -248(%rbp)
	jmp	.L165
	.p2align 4,,10
	.p2align 3
.L576:
	.loc 1 153 0
	vxorpd	%xmm0, %xmm0, %xmm0
	vcvtsi2sd	%r13d, %xmm0, %xmm1
.LBE157:
.LBB219:
.LBB220:
	.loc 2 104 0
	movl	-276(%rbp), %edx
	movl	$.LC15, %esi
.LVL211:
.LBE220:
.LBE219:
.LBB223:
	.loc 1 153 0
	vmulsd	-312(%rbp), %xmm1, %xmm8
.LBE223:
.LBB224:
.LBB221:
	.loc 2 104 0
	movl	$1, %edi
	movl	$3, %eax
	vmovsd	-304(%rbp), %xmm0
.LBE221:
.LBE224:
.LBB225:
	.loc 1 153 0
	vdivsd	%xmm2, %xmm8, %xmm1
.LVL212:
.LBE225:
.LBB226:
.LBB222:
	.loc 2 104 0
	vdivsd	%xmm1, %xmm0, %xmm2
.LVL213:
	call	__printf_chk
.LVL214:
.LBE222:
.LBE226:
	.loc 1 161 0
	movl	-272(%rbp), %r13d
.LVL215:
.LBB227:
.LBB228:
	.file 4 "/usr/include/bits/string3.h"
	.loc 4 90 0
	xorl	%esi, %esi
	movq	%rbx, %rdi
.LBE228:
.LBE227:
	.loc 1 161 0
	movslq	%r13d, %rdx
	salq	$3, %rdx
.LVL216:
.LBB230:
.LBB229:
	.loc 4 90 0
	call	memset
.LVL217:
.LBE229:
.LBE230:
	.loc 1 162 0
	movq	%rbx, %rcx
	movq	%r12, %rdx
	movq	%r15, %rsi
	movl	-276(%rbp), %edi
	call	square_dgemm
.LVL218:
.LBB231:
.LBB232:
	.loc 1 24 0
	pushq	%r14
	movq	%r14, %r9
	movq	%r14, %r8
	pushq	%rbx
	movq	%r14, %rcx
	movl	$111, %edx
	movl	$111, %esi
	vmovsd	.LC1(%rip), %xmm1
	pushq	%r14
	movl	$102, %edi
	vmovsd	.LC16(%rip), %xmm0
	pushq	%r12
	pushq	%r14
	pushq	%r15
	call	cblas_dgemm
.LVL219:
.LBE232:
.LBE231:
.LBB233:
.LBB234:
	.loc 1 61 0
	addq	$48, %rsp
	testl	%r13d, %r13d
	je	.L166
	leal	-4(%r13), %r9d
	leal	-1(%r13), %r13d
	shrl	$2, %r9d
	leal	1(%r9), %r11d
	leal	0(,%r11,4), %eax
	cmpl	$2, %r13d
	jbe	.L201
	movl	$1, %ecx
	.loc 1 62 0
	vmovapd	(%r15), %ymm11
	andl	$7, %r9d
.LVL220:
	vandpd	.LC8(%rip), %ymm11, %ymm12
	leaq	32(%r15), %rdx
	vmovapd	%ymm12, (%r15)
	cmpl	%r11d, %ecx
	jnb	.L532
	testl	%r9d, %r9d
	je	.L168
	cmpl	$1, %r9d
	je	.L431
	cmpl	$2, %r9d
	je	.L432
	cmpl	$3, %r9d
	je	.L433
	cmpl	$4, %r9d
	je	.L434
	cmpl	$5, %r9d
	je	.L435
	cmpl	$6, %r9d
	je	.L436
	vmovapd	32(%r15), %ymm13
	movl	$2, %ecx
	addq	$32, %rdx
	vandpd	.LC8(%rip), %ymm13, %ymm14
	vmovapd	%ymm14, 32(%r15)
.L436:
	vmovapd	(%rdx), %ymm15
	addl	$1, %ecx
	addq	$32, %rdx
	vandpd	.LC8(%rip), %ymm15, %ymm5
	vmovapd	%ymm5, -32(%rdx)
.L435:
	vmovapd	(%rdx), %ymm4
	addl	$1, %ecx
	addq	$32, %rdx
	vandpd	.LC8(%rip), %ymm4, %ymm6
	vmovapd	%ymm6, -32(%rdx)
.L434:
	vmovapd	(%rdx), %ymm3
	addl	$1, %ecx
	addq	$32, %rdx
	vandpd	.LC8(%rip), %ymm3, %ymm2
	vmovapd	%ymm2, -32(%rdx)
.L433:
	vmovapd	(%rdx), %ymm7
	addl	$1, %ecx
	addq	$32, %rdx
	vandpd	.LC8(%rip), %ymm7, %ymm0
	vmovapd	%ymm0, -32(%rdx)
.L432:
	vmovapd	(%rdx), %ymm1
	addl	$1, %ecx
	addq	$32, %rdx
	vandpd	.LC8(%rip), %ymm1, %ymm8
	vmovapd	%ymm8, -32(%rdx)
.L431:
	addl	$1, %ecx
	vmovapd	(%rdx), %ymm9
	addq	$32, %rdx
	vandpd	.LC8(%rip), %ymm9, %ymm10
	vmovapd	%ymm10, -32(%rdx)
	cmpl	%r11d, %ecx
	jnb	.L532
.L168:
	addl	$8, %ecx
	vmovapd	(%rdx), %ymm11
	addq	$256, %rdx
	vandpd	.LC8(%rip), %ymm11, %ymm12
	vmovapd	-224(%rdx), %ymm13
	vmovapd	%ymm12, -256(%rdx)
	vandpd	.LC8(%rip), %ymm13, %ymm14
	vmovapd	-192(%rdx), %ymm15
	vmovapd	%ymm14, -224(%rdx)
	vandpd	.LC8(%rip), %ymm15, %ymm5
	vmovapd	-160(%rdx), %ymm4
	vmovapd	%ymm5, -192(%rdx)
	vandpd	.LC8(%rip), %ymm4, %ymm6
	vmovapd	-128(%rdx), %ymm3
	vmovapd	%ymm6, -160(%rdx)
	vandpd	.LC8(%rip), %ymm3, %ymm2
	vmovapd	-96(%rdx), %ymm7
	vmovapd	%ymm2, -128(%rdx)
	vandpd	.LC8(%rip), %ymm7, %ymm0
	vmovapd	-64(%rdx), %ymm1
	vmovapd	%ymm0, -96(%rdx)
	vandpd	.LC8(%rip), %ymm1, %ymm8
	vmovapd	-32(%rdx), %ymm9
	vmovapd	%ymm8, -64(%rdx)
	vandpd	.LC8(%rip), %ymm9, %ymm10
	vmovapd	%ymm10, -32(%rdx)
	cmpl	%r11d, %ecx
	jb	.L168
	.p2align 4,,10
	.p2align 3
.L532:
	cmpl	%eax, -272(%rbp)
	je	.L170
.L167:
.LVL221:
	movslq	%eax, %rsi
	.loc 1 61 0
	movl	-272(%rbp), %r9d
	.loc 1 62 0
	vmovsd	.LC7(%rip), %xmm12
	leaq	(%r15,%rsi,8), %rdi
	vmovsd	(%rdi), %xmm11
	.loc 1 61 0
	leal	1(%rax), %r8d
.LVL222:
	.loc 1 62 0
	vandpd	%xmm12, %xmm11, %xmm13
	vmovsd	%xmm13, (%rdi)
	.loc 1 61 0
	cmpl	%r8d, %r9d
	jle	.L170
	.loc 1 62 0
	movslq	%r8d, %r11
	.loc 1 61 0
	addl	$2, %eax
	.loc 1 62 0
	leaq	(%r15,%r11,8), %r10
	vmovsd	(%r10), %xmm14
	vandpd	%xmm12, %xmm14, %xmm15
	vmovsd	%xmm15, (%r10)
.LVL223:
	.loc 1 61 0
	cmpl	%eax, %r9d
	jle	.L170
	.loc 1 62 0
	cltq
	leaq	(%r15,%rax,8), %rax
	vmovsd	(%rax), %xmm5
	vandpd	%xmm5, %xmm12, %xmm4
	vmovsd	%xmm4, (%rax)
.L170:
	movl	-280(%rbp), %edx
	movl	-272(%rbp), %ecx
	movl	%ecx, %r11d
	cmpl	%ecx, %edx
	cmovbe	%edx, %r11d
	cmpl	$4, %ecx
	jg	.L577
	movl	%ecx, %r11d
.L196:
.LVL224:
.LBE234:
.LBE233:
.LBB236:
.LBB237:
	vmovsd	(%r12), %xmm6
	.loc 1 61 0
	movl	$1, %edx
	.loc 1 62 0
	vmovsd	.LC7(%rip), %xmm3
	vandpd	%xmm3, %xmm6, %xmm2
	vmovsd	%xmm2, (%r12)
.LVL225:
	cmpl	$1, %r11d
	je	.L174
	vmovsd	8(%r12), %xmm7
	.loc 1 61 0
	movb	$2, %dl
	.loc 1 62 0
	vandpd	%xmm3, %xmm7, %xmm0
	vmovsd	%xmm0, 8(%r12)
.LVL226:
	cmpl	$2, %r11d
	je	.L174
	vmovsd	16(%r12), %xmm1
	.loc 1 61 0
	movb	$3, %dl
	.loc 1 62 0
	vandpd	%xmm3, %xmm1, %xmm8
	vmovsd	%xmm8, 16(%r12)
.LVL227:
	cmpl	$4, %r11d
	jne	.L174
	vmovsd	24(%r12), %xmm9
	.loc 1 61 0
	movb	$4, %dl
	.loc 1 62 0
	vandpd	%xmm9, %xmm3, %xmm10
	vmovsd	%xmm10, 24(%r12)
.LVL228:
.L174:
	cmpl	-272(%rbp), %r11d
	je	.L175
.L173:
	movl	-272(%rbp), %r8d
	movl	%r13d, %esi
	movl	%r11d, %ecx
	subl	%r11d, %esi
	subl	%r11d, %r8d
	leal	-4(%r8), %r10d
	shrl	$2, %r10d
	leal	1(%r10), %edi
	leal	0(,%rdi,4), %r9d
	cmpl	$2, %esi
	jbe	.L176
	addq	-336(%rbp), %rcx
	andl	$7, %r10d
	movl	$32, %esi
	leaq	(%r15,%rcx,8), %r11
	movl	$1, %ecx
	vmovapd	(%r11), %ymm11
	vandpd	.LC8(%rip), %ymm11, %ymm12
	vmovapd	%ymm12, (%r11)
	cmpl	%edi, %ecx
	jnb	.L533
	testl	%r10d, %r10d
	je	.L177
	cmpl	$1, %r10d
	je	.L425
	cmpl	$2, %r10d
	je	.L426
	cmpl	$3, %r10d
	je	.L427
	cmpl	$4, %r10d
	je	.L428
	cmpl	$5, %r10d
	je	.L429
	cmpl	$6, %r10d
	je	.L430
	vmovapd	32(%r11), %ymm13
	movl	$2, %ecx
	movl	$64, %esi
	vandpd	.LC8(%rip), %ymm13, %ymm14
	vmovapd	%ymm14, 32(%r11)
.L430:
	vmovapd	(%r11,%rsi), %ymm15
	addl	$1, %ecx
	vandpd	.LC8(%rip), %ymm15, %ymm5
	vmovapd	%ymm5, (%r11,%rsi)
	addq	$32, %rsi
.L429:
	vmovapd	(%r11,%rsi), %ymm4
	addl	$1, %ecx
	vandpd	.LC8(%rip), %ymm4, %ymm6
	vmovapd	%ymm6, (%r11,%rsi)
	addq	$32, %rsi
.L428:
	vmovapd	(%r11,%rsi), %ymm3
	addl	$1, %ecx
	vandpd	.LC8(%rip), %ymm3, %ymm2
	vmovapd	%ymm2, (%r11,%rsi)
	addq	$32, %rsi
.L427:
	vmovapd	(%r11,%rsi), %ymm7
	addl	$1, %ecx
	vandpd	.LC8(%rip), %ymm7, %ymm0
	vmovapd	%ymm0, (%r11,%rsi)
	addq	$32, %rsi
.L426:
	vmovapd	(%r11,%rsi), %ymm1
	addl	$1, %ecx
	vandpd	.LC8(%rip), %ymm1, %ymm8
	vmovapd	%ymm8, (%r11,%rsi)
	addq	$32, %rsi
.L425:
	addl	$1, %ecx
	vmovapd	(%r11,%rsi), %ymm9
	vandpd	.LC8(%rip), %ymm9, %ymm10
	vmovapd	%ymm10, (%r11,%rsi)
	addq	$32, %rsi
	cmpl	%edi, %ecx
	jnb	.L533
.L177:
	addl	$8, %ecx
	vmovapd	(%r11,%rsi), %ymm11
	vandpd	.LC8(%rip), %ymm11, %ymm12
	vmovapd	%ymm12, (%r11,%rsi)
	vmovapd	32(%r11,%rsi), %ymm13
	vandpd	.LC8(%rip), %ymm13, %ymm14
	vmovapd	%ymm14, 32(%r11,%rsi)
	vmovapd	64(%r11,%rsi), %ymm15
	vandpd	.LC8(%rip), %ymm15, %ymm5
	vmovapd	%ymm5, 64(%r11,%rsi)
	vmovapd	96(%r11,%rsi), %ymm4
	vandpd	.LC8(%rip), %ymm4, %ymm6
	vmovapd	%ymm6, 96(%r11,%rsi)
	vmovapd	128(%r11,%rsi), %ymm3
	vandpd	.LC8(%rip), %ymm3, %ymm2
	vmovapd	%ymm2, 128(%r11,%rsi)
	vmovapd	160(%r11,%rsi), %ymm7
	vandpd	.LC8(%rip), %ymm7, %ymm0
	vmovapd	%ymm0, 160(%r11,%rsi)
	vmovapd	192(%r11,%rsi), %ymm1
	vandpd	.LC8(%rip), %ymm1, %ymm8
	vmovapd	%ymm8, 192(%r11,%rsi)
	vmovapd	224(%r11,%rsi), %ymm9
	vandpd	.LC8(%rip), %ymm9, %ymm10
	vmovapd	%ymm10, 224(%r11,%rsi)
	addq	$256, %rsi
	cmpl	%edi, %ecx
	jb	.L177
	.p2align 4,,10
	.p2align 3
.L533:
	addl	%r9d, %edx
	cmpl	%r9d, %r8d
	je	.L175
.L176:
.LVL229:
	.loc 1 61 0
	movl	-272(%rbp), %r11d
	leal	1(%rdx), %eax
.LVL230:
	.loc 1 62 0
	movslq	%edx, %r10
	vmovsd	.LC7(%rip), %xmm12
	leaq	(%r12,%r10,8), %rdi
	vmovsd	(%rdi), %xmm11
	vandpd	%xmm12, %xmm11, %xmm13
	vmovsd	%xmm13, (%rdi)
	.loc 1 61 0
	cmpl	%eax, %r11d
	jle	.L175
	.loc 1 62 0
	cltq
	.loc 1 61 0
	addl	$2, %edx
	.loc 1 62 0
	leaq	(%r12,%rax,8), %rcx
	vmovsd	(%rcx), %xmm14
	vandpd	%xmm12, %xmm14, %xmm15
	vmovsd	%xmm15, (%rcx)
.LVL231:
	.loc 1 61 0
	cmpl	%edx, %r11d
	jle	.L175
	.loc 1 62 0
	movslq	%edx, %rsi
	leaq	(%r12,%rsi,8), %rdx
	vmovsd	(%rdx), %xmm5
	vandpd	%xmm5, %xmm12, %xmm4
	vmovsd	%xmm4, (%rdx)
.L175:
.LVL232:
	movl	-272(%rbp), %r8d
	movl	$1, %eax
	movl	-324(%rbp), %r10d
	testl	%r8d, %r8d
	cmovg	%r8d, %eax
	movl	%r10d, %r11d
	cmpl	%r10d, %eax
	cmovbe	%eax, %r11d
	cmpl	$4, %eax
	jg	.L578
.LBE237:
.LBE236:
.LBB239:
	.loc 1 184 0
	movl	%eax, %r11d
.L197:
.LBE239:
.LBB243:
.LBB244:
	.loc 1 62 0
	vmovsd	(%rbx), %xmm6
	.loc 1 61 0
	movl	$1, %edx
	.loc 1 62 0
	vmovsd	.LC7(%rip), %xmm3
	vandpd	%xmm3, %xmm6, %xmm2
	vmovsd	%xmm2, (%rbx)
.LVL233:
	cmpl	$1, %r11d
	je	.L183
	vmovsd	8(%rbx), %xmm7
	.loc 1 61 0
	movb	$2, %dl
	.loc 1 62 0
	vandpd	%xmm3, %xmm7, %xmm0
	vmovsd	%xmm0, 8(%rbx)
.LVL234:
	cmpl	$2, %r11d
	je	.L183
	vmovsd	16(%rbx), %xmm1
	.loc 1 61 0
	movb	$3, %dl
	.loc 1 62 0
	vandpd	%xmm3, %xmm1, %xmm8
	vmovsd	%xmm8, 16(%rbx)
.LVL235:
	cmpl	$4, %r11d
	jne	.L183
	vmovsd	24(%rbx), %xmm9
	.loc 1 61 0
	movb	$4, %dl
	.loc 1 62 0
	vandpd	%xmm9, %xmm3, %xmm10
	vmovsd	%xmm10, 24(%rbx)
.LVL236:
.L183:
	cmpl	%r11d, %eax
	je	.L184
.L182:
	movl	-272(%rbp), %esi
	subl	%r11d, %eax
	movl	$0, %r9d
	movl	%r11d, %ecx
	leal	-4(%rax), %edi
	shrl	$2, %edi
	leal	1(%rdi), %r8d
	leal	0(,%r8,4), %r10d
	testl	%esi, %esi
	cmovg	%r13d, %r9d
	subl	%r11d, %r9d
	cmpl	$2, %r9d
	jbe	.L185
	addq	-344(%rbp), %rcx
	andl	$7, %edi
	movl	%edi, %esi
	movl	$1, %edi
	leaq	(%r15,%rcx,8), %r11
	movl	$32, %ecx
	vmovapd	(%r11), %ymm11
	vandpd	.LC8(%rip), %ymm11, %ymm12
	vmovapd	%ymm12, (%r11)
	cmpl	%r8d, %edi
	jnb	.L534
	testl	%esi, %esi
	je	.L186
	cmpl	$1, %esi
	je	.L419
	cmpl	$2, %esi
	je	.L420
	cmpl	$3, %esi
	je	.L421
	cmpl	$4, %esi
	je	.L422
	cmpl	$5, %esi
	je	.L423
	cmpl	$6, %esi
	je	.L424
	vmovapd	32(%r11), %ymm13
	movl	$2, %edi
	movl	$64, %ecx
	vandpd	.LC8(%rip), %ymm13, %ymm14
	vmovapd	%ymm14, 32(%r11)
.L424:
	vmovapd	(%r11,%rcx), %ymm15
	addl	$1, %edi
	vandpd	.LC8(%rip), %ymm15, %ymm5
	vmovapd	%ymm5, (%r11,%rcx)
	addq	$32, %rcx
.L423:
	vmovapd	(%r11,%rcx), %ymm4
	addl	$1, %edi
	vandpd	.LC8(%rip), %ymm4, %ymm6
	vmovapd	%ymm6, (%r11,%rcx)
	addq	$32, %rcx
.L422:
	vmovapd	(%r11,%rcx), %ymm3
	addl	$1, %edi
	vandpd	.LC8(%rip), %ymm3, %ymm2
	vmovapd	%ymm2, (%r11,%rcx)
	addq	$32, %rcx
.L421:
	vmovapd	(%r11,%rcx), %ymm7
	addl	$1, %edi
	vandpd	.LC8(%rip), %ymm7, %ymm0
	vmovapd	%ymm0, (%r11,%rcx)
	addq	$32, %rcx
.L420:
	vmovapd	(%r11,%rcx), %ymm1
	addl	$1, %edi
	vandpd	.LC8(%rip), %ymm1, %ymm8
	vmovapd	%ymm8, (%r11,%rcx)
	addq	$32, %rcx
.L419:
	addl	$1, %edi
	vmovapd	(%r11,%rcx), %ymm9
	vandpd	.LC8(%rip), %ymm9, %ymm10
	vmovapd	%ymm10, (%r11,%rcx)
	addq	$32, %rcx
	cmpl	%r8d, %edi
	jnb	.L534
.L186:
	addl	$8, %edi
	vmovapd	(%r11,%rcx), %ymm11
	vandpd	.LC8(%rip), %ymm11, %ymm12
	vmovapd	%ymm12, (%r11,%rcx)
	vmovapd	32(%r11,%rcx), %ymm13
	vandpd	.LC8(%rip), %ymm13, %ymm14
	vmovapd	%ymm14, 32(%r11,%rcx)
	vmovapd	64(%r11,%rcx), %ymm15
	vandpd	.LC8(%rip), %ymm15, %ymm5
	vmovapd	%ymm5, 64(%r11,%rcx)
	vmovapd	96(%r11,%rcx), %ymm4
	vandpd	.LC8(%rip), %ymm4, %ymm6
	vmovapd	%ymm6, 96(%r11,%rcx)
	vmovapd	128(%r11,%rcx), %ymm3
	vandpd	.LC8(%rip), %ymm3, %ymm2
	vmovapd	%ymm2, 128(%r11,%rcx)
	vmovapd	160(%r11,%rcx), %ymm7
	vandpd	.LC8(%rip), %ymm7, %ymm0
	vmovapd	%ymm0, 160(%r11,%rcx)
	vmovapd	192(%r11,%rcx), %ymm1
	vandpd	.LC8(%rip), %ymm1, %ymm8
	vmovapd	%ymm8, 192(%r11,%rcx)
	vmovapd	224(%r11,%rcx), %ymm9
	vandpd	.LC8(%rip), %ymm9, %ymm10
	vmovapd	%ymm10, 224(%r11,%rcx)
	addq	$256, %rcx
	cmpl	%r8d, %edi
	jb	.L186
	.p2align 4,,10
	.p2align 3
.L534:
	addl	%r10d, %edx
	cmpl	%eax, %r10d
	je	.L184
.L185:
.LVL237:
	.loc 1 61 0
	movl	-272(%rbp), %r11d
	leal	1(%rdx), %eax
.LVL238:
	.loc 1 62 0
	movslq	%edx, %r8
	leaq	(%rbx,%r8,8), %r9
	vmovsd	(%r9), %xmm11
	vandpd	.LC7(%rip), %xmm11, %xmm12
	vmovsd	%xmm12, (%r9)
	.loc 1 61 0
	cmpl	%eax, %r11d
	jle	.L184
	.loc 1 62 0
	cltq
	.loc 1 61 0
	addl	$2, %edx
	.loc 1 62 0
	leaq	(%rbx,%rax,8), %rsi
	vmovsd	(%rsi), %xmm13
	vandpd	.LC7(%rip), %xmm13, %xmm14
	vmovsd	%xmm14, (%rsi)
.LVL239:
	.loc 1 61 0
	cmpl	%r11d, %edx
	jge	.L184
	.loc 1 62 0
	movslq	%edx, %rdi
	leaq	(%rbx,%rdi,8), %rcx
	vmovsd	(%rcx), %xmm15
	vandpd	.LC7(%rip), %xmm15, %xmm5
	vmovsd	%xmm5, (%rcx)
.L184:
.LVL240:
.LBE244:
.LBE243:
.LBB246:
.LBB247:
	.loc 1 24 0
	pushq	%r14
	movq	%r14, %r9
	movq	%r14, %r8
	movq	%r14, %rcx
	pushq	%rbx
	movl	$111, %edx
	movl	$111, %esi
	movl	$102, %edi
.LBE247:
.LBE246:
	.loc 1 179 0
	vmovsd	.LC22(%rip), %xmm4
.LBB253:
.LBB248:
	.loc 1 24 0
	pushq	%r14
.LBE248:
.LBE253:
	.loc 1 179 0
	vmulsd	-296(%rbp), %xmm4, %xmm0
.LVL241:
.LBB254:
.LBB249:
	.loc 1 24 0
	pushq	%r12
	vmovsd	.LC1(%rip), %xmm1
	pushq	%r14
	pushq	%r15
	vzeroupper
	call	cblas_dgemm
.LVL242:
.LBE249:
.LBE254:
.LBB255:
	.loc 1 184 0
	vmovsd	(%rbx), %xmm0
	addq	$48, %rsp
	vxorpd	%xmm6, %xmm6, %xmm6
	vcomisd	%xmm6, %xmm0
	ja	.L195
	movl	-272(%rbp), %r14d
	leaq	8(%rbx), %r10
	xorl	%edx, %edx
	subl	$1, %r14d
	andl	$7, %r14d
	je	.L546
.LVL243:
	.loc 1 182 0
	cmpl	$1, -272(%rbp)
	movl	$1, %edx
	jle	.L194
	leaq	16(%rbx), %r10
	.loc 1 184 0
	vmovsd	-8(%r10), %xmm0
	vcomisd	%xmm6, %xmm0
	ja	.L195
	cmpl	$1, %r14d
	je	.L546
	cmpl	$2, %r14d
	je	.L414
	cmpl	$3, %r14d
	je	.L415
	cmpl	$4, %r14d
	je	.L416
	cmpl	$5, %r14d
	je	.L417
	cmpl	$6, %r14d
	je	.L418
.LVL244:
	vmovsd	(%r10), %xmm0
	.loc 1 182 0
	addl	$1, %edx
.LVL245:
	addq	$8, %r10
	.loc 1 184 0
	vcomisd	%xmm6, %xmm0
	ja	.L195
.LVL246:
.L418:
	vmovsd	(%r10), %xmm0
	.loc 1 182 0
	addl	$1, %edx
.LVL247:
	addq	$8, %r10
	.loc 1 184 0
	vcomisd	%xmm6, %xmm0
	ja	.L195
.LVL248:
.L417:
	vmovsd	(%r10), %xmm0
	.loc 1 182 0
	addl	$1, %edx
.LVL249:
	addq	$8, %r10
	.loc 1 184 0
	vcomisd	%xmm6, %xmm0
	ja	.L195
.LVL250:
.L416:
	vmovsd	(%r10), %xmm0
	.loc 1 182 0
	addl	$1, %edx
.LVL251:
	addq	$8, %r10
	.loc 1 184 0
	vcomisd	%xmm6, %xmm0
	ja	.L195
.LVL252:
.L415:
	vmovsd	(%r10), %xmm0
	.loc 1 182 0
	addl	$1, %edx
.LVL253:
	addq	$8, %r10
	.loc 1 184 0
	vcomisd	%xmm6, %xmm0
	ja	.L195
.LVL254:
.L414:
	addq	$8, %r10
	vmovsd	-8(%r10), %xmm0
	.loc 1 182 0
	addl	$1, %edx
.LVL255:
	.loc 1 184 0
	vcomisd	%xmm6, %xmm0
	ja	.L195
.LVL256:
.L546:
	movl	-272(%rbp), %r8d
	jmp	.L190
	.p2align 4,,10
	.p2align 3
.L192:
	vmovsd	(%r10), %xmm0
	vcomisd	%xmm6, %xmm0
	ja	.L195
	vmovsd	8(%r10), %xmm0
	vcomisd	%xmm6, %xmm0
	ja	.L195
	vmovsd	16(%r10), %xmm0
	vcomisd	%xmm6, %xmm0
	ja	.L195
	vmovsd	24(%r10), %xmm0
	vcomisd	%xmm6, %xmm0
	ja	.L195
	vmovsd	32(%r10), %xmm0
	vcomisd	%xmm6, %xmm0
	ja	.L195
	vmovsd	40(%r10), %xmm0
	vcomisd	%xmm6, %xmm0
	ja	.L195
	vmovsd	48(%r10), %xmm0
	vcomisd	%xmm6, %xmm0
	ja	.L195
	addq	$64, %r10
	vmovsd	-8(%r10), %xmm0
	.loc 1 182 0
	addl	$8, %edx
	.loc 1 184 0
	vcomisd	%xmm6, %xmm0
	ja	.L195
.L190:
	.loc 1 182 0 discriminator 2
	leal	1(%rdx), %r9d
	cmpl	%r9d, %r8d
	jg	.L192
.LVL257:
.L194:
	addq	$4, -288(%rbp)
	movq	-288(%rbp), %r11
.LBE255:
.LBE136:
	.loc 1 109 0 discriminator 2
	cmpq	-320(%rbp), %r11
	jne	.L193
.LBE135:
	.loc 1 199 0
	movq	%r15, %rdi
	call	free
.LVL258:
	.loc 1 239 0
	xorl	%eax, %eax
	movq	-56(%rbp), %rdx
	xorq	%fs:40, %rdx
	jne	.L579
	leaq	-48(%rbp), %rsp
	popq	%rbx
.LVL259:
	popq	%r11
	.cfi_remember_state
	.cfi_def_cfa 10, 0
	popq	%r12
.LVL260:
	popq	%r13
	popq	%r14
	popq	%r15
.LVL261:
	popq	%rbp
.LVL262:
	leaq	-8(%r11), %rsp
	.cfi_def_cfa 7, 8
.LVL263:
	ret
.LVL264:
	.p2align 4,,10
	.p2align 3
.L578:
	.cfi_restore_state
	testl	%r11d, %r11d
	jne	.L197
.LBB264:
.LBB263:
.LBB256:
.LBB245:
	.loc 1 61 0
	xorl	%edx, %edx
	jmp	.L182
.LVL265:
	.p2align 4,,10
	.p2align 3
.L577:
	testl	%r11d, %r11d
	jne	.L196
.LBE245:
.LBE256:
.LBB257:
.LBB238:
	xorl	%edx, %edx
	jmp	.L173
.LVL266:
	.p2align 4,,10
	.p2align 3
.L201:
.LBE238:
.LBE257:
.LBB258:
.LBB235:
	xorl	%eax, %eax
	jmp	.L167
.LVL267:
.L166:
.LBE235:
.LBE258:
.LBB259:
.LBB250:
	.loc 1 24 0
	pushq	%r14
	movq	%r14, %r9
	movq	%r14, %r8
	movq	%r14, %rcx
	pushq	%rbx
	movl	$111, %edx
	movl	$111, %esi
	movl	$102, %edi
.LBE250:
.LBE259:
	.loc 1 179 0
	vmovsd	.LC22(%rip), %xmm10
.LBB260:
.LBB251:
	.loc 1 24 0
	pushq	%r14
.LBE251:
.LBE260:
	.loc 1 179 0
	vmulsd	-296(%rbp), %xmm10, %xmm0
.LVL268:
.LBB261:
.LBB252:
	.loc 1 24 0
	pushq	%r12
	vmovsd	.LC1(%rip), %xmm1
	pushq	%r14
	pushq	%r15
	call	cblas_dgemm
.LVL269:
	addq	$48, %rsp
	jmp	.L194
.LVL270:
.L195:
.LBE252:
.LBE261:
.LBB262:
.LBB240:
.LBB241:
	.loc 2 104 0
	movl	$.LC18, %esi
	movl	$1, %edi
	movl	$1, %eax
	call	__printf_chk
.LVL271:
.LBE241:
.LBE240:
.LBB242:
	.loc 1 187 0
	cmpl	$0, -272(%rbp)
	movl	$8, %edx
	movq	%rbx, %rdi
	leaq	8(,%r13,8), %rax
	cmovg	%rax, %rdx
	xorl	%esi, %esi
	call	memset
.LVL272:
.LBE242:
	.loc 1 188 0
	movq	%r15, %rsi
	movq	%rbx, %rcx
	movq	%r12, %rdx
	movl	-276(%rbp), %r15d
.LVL273:
	movl	%r15d, %edi
	call	square_dgemm
.LVL274:
	.loc 1 189 0
	movl	%r15d, %edi
	movq	%rbx, %rdx
	movl	%r15d, %esi
	call	printmatrix
.LVL275:
	.loc 1 192 0
	movl	$.LC19, %edi
	call	die
.LVL276:
.L579:
.LBE262:
.LBE263:
.LBE264:
	.loc 1 239 0
	call	__stack_chk_fail
.LVL277:
	.cfi_endproc
.LFE2289:
	.size	main, .-main
	.section	.text.unlikely
.LCOLDE23:
	.section	.text.startup
.LHOTE23:
	.section	.rodata.cst8,"aM",@progbits,8
	.align 8
.LC1:
	.long	0
	.long	1072693248
	.align 8
.LC3:
	.long	3894859413
	.long	1041313291
	.section	.rodata.cst16,"aM",@progbits,16
	.align 16
.LC7:
	.long	4294967295
	.long	2147483647
	.long	0
	.long	0
	.section	.rodata.cst32,"aM",@progbits,32
	.align 32
.LC8:
	.long	4294967295
	.long	2147483647
	.long	4294967295
	.long	2147483647
	.long	4294967295
	.long	2147483647
	.long	4294967295
	.long	2147483647
	.section	.rodata.cst8
	.align 8
.LC14:
	.long	2576980378
	.long	1069128089
	.align 8
.LC16:
	.long	0
	.long	-1074790400
	.align 8
.LC21:
	.long	3894859413
	.long	1042361867
	.align 8
.LC22:
	.long	0
	.long	-1127743488
	.text
.Letext0:
	.section	.text.unlikely
.Letext_cold0:
	.file 5 "/usr/lib/gcc/x86_64-pc-linux-gnu/4.9.3/include/stddef.h"
	.file 6 "/usr/include/bits/types.h"
	.file 7 "/usr/include/time.h"
	.file 8 "/usr/include/libio.h"
	.file 9 "/opt/intel/compilers_and_libraries_2016.2.181/linux/mkl/include/mkl_cblas.h"
	.file 10 "/usr/include/stdio.h"
	.file 11 "/usr/include/stdlib.h"
	.file 12 "<built-in>"
	.section	.note.GNU-stack,"",@progbits
