	.file	"benchmark-l1l2.c"
	.text
.Ltext0:
	.section	.text.unlikely,"ax",@progbits
.LCOLDB1:
	.text
.LHOTB1:
	.p2align 4,,15
	.section	.text.unlikely
.Ltext_cold0:
	.text
	.globl	reference_dgemm
	.type	reference_dgemm, @function
reference_dgemm:
.LFB73:
	.file 1 "benchmark-l1l2.c"
	.loc 1 18 0
	.cfi_startproc
.LVL0:
	pushq	%rbp
	.cfi_def_cfa_offset 16
	.cfi_offset 6, -16
	movq	%rsp, %rbp
	.cfi_def_cfa_register 6
	call	mcount
	.loc 1 18 0
.LVL1:
	.loc 1 24 0
	vmovsd	.LC0(%rip), %xmm1
	movslq	%edi, %rdi
	pushq	%rdi
	movq	%rdi, %r9
	movq	%rdi, %r8
	pushq	%rcx
	movq	%rdi, %rcx
.LVL2:
	pushq	%rdi
.LVL3:
	pushq	%rdx
.LVL4:
	movl	$111, %edx
.LVL5:
	pushq	%rdi
.LVL6:
	movl	$102, %edi
.LVL7:
	pushq	%rsi
.LVL8:
	movl	$111, %esi
.LVL9:
	call	cblas_dgemm
.LVL10:
	addq	$48, %rsp
	.loc 1 25 0
	leave
	.cfi_def_cfa 7, 8
	ret
	.cfi_endproc
.LFE73:
	.size	reference_dgemm, .-reference_dgemm
	.section	.text.unlikely
.LCOLDE1:
	.text
.LHOTE1:
	.section	.text.unlikely
.LCOLDB3:
	.text
.LHOTB3:
	.p2align 4,,15
	.globl	wall_time
	.type	wall_time, @function
wall_time:
.LFB74:
	.loc 1 33 0
	.cfi_startproc
	pushq	%rbp
	.cfi_def_cfa_offset 16
	.cfi_offset 6, -16
	movq	%rsp, %rbp
	.cfi_def_cfa_register 6
	subq	$32, %rsp
	call	mcount
	.loc 1 33 0
	.loc 1 40 0
	movl	$1, %edi
	.loc 1 33 0
	movq	%fs:40, %rax
	movq	%rax, -8(%rbp)
	xorl	%eax, %eax
	.loc 1 40 0
	leaq	-32(%rbp), %rsi
	call	clock_gettime
.LVL11:
	.loc 1 41 0
	vxorpd	%xmm0, %xmm0, %xmm0
	vxorpd	%xmm3, %xmm3, %xmm3
	.loc 1 43 0
	movq	-8(%rbp), %rax
	xorq	%fs:40, %rax
	.loc 1 41 0
	vcvtsi2sdq	-24(%rbp), %xmm0, %xmm1
	vmulsd	.LC2(%rip), %xmm1, %xmm2
	vcvtsi2sdq	-32(%rbp), %xmm3, %xmm4
	vaddsd	%xmm4, %xmm2, %xmm0
	.loc 1 43 0
	jne	.L6
	leave
	.cfi_remember_state
	.cfi_def_cfa 7, 8
	ret
.L6:
	.cfi_restore_state
	call	__stack_chk_fail
.LVL12:
	.cfi_endproc
.LFE74:
	.size	wall_time, .-wall_time
	.section	.text.unlikely
.LCOLDE3:
	.text
.LHOTE3:
	.section	.text.unlikely
.LCOLDB4:
	.text
.LHOTB4:
	.p2align 4,,15
	.globl	die
	.type	die, @function
die:
.LFB75:
	.loc 1 46 0
	.cfi_startproc
.LVL13:
	pushq	%rbp
	.cfi_def_cfa_offset 16
	.cfi_offset 6, -16
	movq	%rsp, %rbp
	.cfi_def_cfa_register 6
	call	mcount
	.loc 1 46 0
	.loc 1 47 0
	call	perror
.LVL14:
	.loc 1 48 0
	movl	$1, %edi
	call	exit
.LVL15:
	.cfi_endproc
.LFE75:
	.size	die, .-die
	.section	.text.unlikely
.LCOLDE4:
	.text
.LHOTE4:
	.section	.text.unlikely
.LCOLDB5:
	.text
.LHOTB5:
	.p2align 4,,15
	.globl	fill
	.type	fill, @function
fill:
.LFB76:
	.loc 1 52 0
	.cfi_startproc
.LVL16:
	pushq	%rbp
	.cfi_def_cfa_offset 16
	.cfi_offset 6, -16
	movq	%rsp, %rbp
	.cfi_def_cfa_register 6
	pushq	%r14
	pushq	%r13
	pushq	%r12
	pushq	%rbx
	.cfi_offset 14, -24
	.cfi_offset 13, -32
	.cfi_offset 12, -40
	.cfi_offset 3, -48
	call	mcount
	.loc 1 52 0
.LVL17:
.LBB27:
	.loc 1 53 0
	testl	%esi, %esi
	jle	.L49
	leal	-1(%rsi), %r12d
	movq	%rdi, %r14
	leaq	8(%rdi,%r12,8), %r13
	andl	$7, %r12d
.LVL18:
	.loc 1 54 0
	call	drand48
.LVL19:
	leaq	8(%r14), %rbx
	vaddsd	%xmm0, %xmm0, %xmm0
	vsubsd	.LC0(%rip), %xmm0, %xmm1
	vmovsd	%xmm1, (%r14)
	.loc 1 53 0
	cmpq	%r13, %rbx
	je	.L49
	testq	%r12, %r12
	je	.L10
	cmpq	$1, %r12
	je	.L36
	cmpq	$2, %r12
	je	.L37
	cmpq	$3, %r12
	je	.L38
	cmpq	$4, %r12
	je	.L39
	cmpq	$5, %r12
	je	.L40
	cmpq	$6, %r12
	je	.L41
	.loc 1 54 0
	call	drand48
.LVL20:
	vaddsd	%xmm0, %xmm0, %xmm2
	vsubsd	.LC0(%rip), %xmm2, %xmm3
	vmovsd	%xmm3, (%rbx)
	leaq	16(%r14), %rbx
.L41:
	call	drand48
.LVL21:
	addq	$8, %rbx
	vaddsd	%xmm0, %xmm0, %xmm4
	vsubsd	.LC0(%rip), %xmm4, %xmm5
	vmovsd	%xmm5, -8(%rbx)
.L40:
	call	drand48
.LVL22:
	addq	$8, %rbx
	vaddsd	%xmm0, %xmm0, %xmm6
	vsubsd	.LC0(%rip), %xmm6, %xmm7
	vmovsd	%xmm7, -8(%rbx)
.L39:
	call	drand48
.LVL23:
	addq	$8, %rbx
	vaddsd	%xmm0, %xmm0, %xmm8
	vsubsd	.LC0(%rip), %xmm8, %xmm9
	vmovsd	%xmm9, -8(%rbx)
.L38:
	call	drand48
.LVL24:
	addq	$8, %rbx
	vaddsd	%xmm0, %xmm0, %xmm10
	vsubsd	.LC0(%rip), %xmm10, %xmm11
	vmovsd	%xmm11, -8(%rbx)
.L37:
	call	drand48
.LVL25:
	addq	$8, %rbx
	vaddsd	%xmm0, %xmm0, %xmm12
	vsubsd	.LC0(%rip), %xmm12, %xmm13
	vmovsd	%xmm13, -8(%rbx)
.L36:
	call	drand48
.LVL26:
	addq	$8, %rbx
	vaddsd	%xmm0, %xmm0, %xmm14
	vsubsd	.LC0(%rip), %xmm14, %xmm15
	vmovsd	%xmm15, -8(%rbx)
	.loc 1 53 0
	cmpq	%r13, %rbx
	je	.L49
.L10:
	.loc 1 54 0 discriminator 3
	call	drand48
.LVL27:
	addq	$64, %rbx
	vaddsd	%xmm0, %xmm0, %xmm0
	vsubsd	.LC0(%rip), %xmm0, %xmm1
	vmovsd	%xmm1, -64(%rbx)
	call	drand48
.LVL28:
	vaddsd	%xmm0, %xmm0, %xmm2
	vsubsd	.LC0(%rip), %xmm2, %xmm3
	vmovsd	%xmm3, -56(%rbx)
	call	drand48
.LVL29:
	vaddsd	%xmm0, %xmm0, %xmm4
	vsubsd	.LC0(%rip), %xmm4, %xmm5
	vmovsd	%xmm5, -48(%rbx)
	call	drand48
.LVL30:
	vaddsd	%xmm0, %xmm0, %xmm6
	vsubsd	.LC0(%rip), %xmm6, %xmm7
	vmovsd	%xmm7, -40(%rbx)
	call	drand48
.LVL31:
	vaddsd	%xmm0, %xmm0, %xmm8
	vsubsd	.LC0(%rip), %xmm8, %xmm9
	vmovsd	%xmm9, -32(%rbx)
	call	drand48
.LVL32:
	vaddsd	%xmm0, %xmm0, %xmm10
	vsubsd	.LC0(%rip), %xmm10, %xmm11
	vmovsd	%xmm11, -24(%rbx)
	call	drand48
.LVL33:
	vaddsd	%xmm0, %xmm0, %xmm12
	vsubsd	.LC0(%rip), %xmm12, %xmm13
	vmovsd	%xmm13, -16(%rbx)
	call	drand48
.LVL34:
	vaddsd	%xmm0, %xmm0, %xmm14
	vsubsd	.LC0(%rip), %xmm14, %xmm15
	vmovsd	%xmm15, -8(%rbx)
	.loc 1 53 0 discriminator 3
	cmpq	%r13, %rbx
	jne	.L10
.LVL35:
.L49:
.LBE27:
	.loc 1 57 0
	popq	%rbx
	popq	%r12
	popq	%r13
	popq	%r14
	popq	%rbp
	.cfi_def_cfa 7, 8
	ret
	.cfi_endproc
.LFE76:
	.size	fill, .-fill
	.section	.text.unlikely
.LCOLDE5:
	.text
.LHOTE5:
	.section	.text.unlikely
.LCOLDB8:
	.text
.LHOTB8:
	.p2align 4,,15
	.globl	absolute_value
	.type	absolute_value, @function
absolute_value:
.LFB77:
	.loc 1 60 0
	.cfi_startproc
.LVL36:
	leaq	8(%rsp), %r10
	.cfi_def_cfa 10, 0
	andq	$-32, %rsp
	pushq	-8(%r10)
	pushq	%rbp
	.cfi_escape 0x10,0x6,0x2,0x76,0
	movq	%rsp, %rbp
	pushq	%r10
	.cfi_escape 0xf,0x3,0x76,0x78,0x6
	pushq	%rbx
	.cfi_escape 0x10,0x3,0x2,0x76,0x70
	call	mcount
	.loc 1 60 0
.LVL37:
.LBB28:
	.loc 1 61 0
	testl	%esi, %esi
	jle	.L108
	movq	%rdi, %rax
	andl	$31, %eax
	shrq	$3, %rax
	negq	%rax
	andl	$3, %eax
	cmpl	%esi, %eax
	cmova	%esi, %eax
	cmpl	$4, %esi
	jg	.L109
	movl	%esi, %eax
.L62:
	.loc 1 62 0
	vmovsd	(%rdi), %xmm1
	.loc 1 61 0
	movl	$1, %edx
	.loc 1 62 0
	vmovsd	.LC6(%rip), %xmm0
	vandpd	%xmm0, %xmm1, %xmm2
	vmovsd	%xmm2, (%rdi)
.LVL38:
	cmpl	$1, %eax
	je	.L54
	vmovsd	8(%rdi), %xmm3
	.loc 1 61 0
	movb	$2, %dl
	.loc 1 62 0
	vandpd	%xmm0, %xmm3, %xmm4
	vmovsd	%xmm4, 8(%rdi)
.LVL39:
	cmpl	$2, %eax
	je	.L54
	vmovsd	16(%rdi), %xmm5
	.loc 1 61 0
	movb	$3, %dl
	.loc 1 62 0
	vandpd	%xmm0, %xmm5, %xmm6
	vmovsd	%xmm6, 16(%rdi)
.LVL40:
	cmpl	$4, %eax
	jne	.L54
	vmovsd	24(%rdi), %xmm7
	.loc 1 61 0
	movb	$4, %dl
	.loc 1 62 0
	vandpd	%xmm7, %xmm0, %xmm8
	vmovsd	%xmm8, 24(%rdi)
.LVL41:
.L54:
	cmpl	%eax, %esi
	je	.L108
.L53:
	leal	-1(%rsi), %ecx
	movl	%esi, %r11d
	movl	%eax, %r9d
	subl	%eax, %r11d
	subl	%eax, %ecx
	leal	-4(%r11), %r8d
	shrl	$2, %r8d
	leal	1(%r8), %r10d
	leal	0(,%r10,4), %ebx
	cmpl	$2, %ecx
	jbe	.L56
	leaq	(%rdi,%r9,8), %rcx
	andl	$7, %r8d
	movl	$32, %eax
	vmovapd	.LC7(%rip), %ymm9
	movl	$1, %r9d
	vandpd	(%rcx), %ymm9, %ymm10
	vmovapd	%ymm10, (%rcx)
	cmpl	$1, %r10d
	jbe	.L106
	testl	%r8d, %r8d
	je	.L57
	cmpl	$1, %r8d
	je	.L91
	cmpl	$2, %r8d
	je	.L92
	cmpl	$3, %r8d
	je	.L93
	cmpl	$4, %r8d
	je	.L94
	cmpl	$5, %r8d
	je	.L95
	cmpl	$6, %r8d
	je	.L96
	vandpd	32(%rcx), %ymm9, %ymm11
	movl	$2, %r9d
	vmovapd	%ymm11, 32(%rcx)
	movl	$64, %eax
.L96:
	vandpd	(%rcx,%rax), %ymm9, %ymm12
	addl	$1, %r9d
	vmovapd	%ymm12, (%rcx,%rax)
	addq	$32, %rax
.L95:
	vandpd	(%rcx,%rax), %ymm9, %ymm13
	addl	$1, %r9d
	vmovapd	%ymm13, (%rcx,%rax)
	addq	$32, %rax
.L94:
	vandpd	(%rcx,%rax), %ymm9, %ymm14
	addl	$1, %r9d
	vmovapd	%ymm14, (%rcx,%rax)
	addq	$32, %rax
.L93:
	vandpd	(%rcx,%rax), %ymm9, %ymm15
	addl	$1, %r9d
	vmovapd	%ymm15, (%rcx,%rax)
	addq	$32, %rax
.L92:
	vandpd	(%rcx,%rax), %ymm9, %ymm1
	addl	$1, %r9d
	vmovapd	%ymm1, (%rcx,%rax)
	addq	$32, %rax
.L91:
	addl	$1, %r9d
	vandpd	(%rcx,%rax), %ymm9, %ymm0
	vmovapd	%ymm0, (%rcx,%rax)
	addq	$32, %rax
	cmpl	%r9d, %r10d
	ja	.L57
.L106:
	addl	%ebx, %edx
	cmpl	%ebx, %r11d
	je	.L107
	vzeroupper
.L56:
.LVL42:
	vmovsd	.LC6(%rip), %xmm11
	.loc 1 61 0
	leal	1(%rdx), %eax
.LVL43:
	.loc 1 62 0
	movslq	%edx, %r8
	leaq	(%rdi,%r8,8), %r10
	vmovsd	(%r10), %xmm9
	vandpd	%xmm11, %xmm9, %xmm12
	vmovsd	%xmm12, (%r10)
	.loc 1 61 0
	cmpl	%eax, %esi
	jle	.L108
	.loc 1 62 0
	cltq
	.loc 1 61 0
	addl	$2, %edx
	.loc 1 62 0
	leaq	(%rdi,%rax,8), %rcx
	vmovsd	(%rcx), %xmm13
	vandpd	%xmm11, %xmm13, %xmm14
	vmovsd	%xmm14, (%rcx)
.LVL44:
	.loc 1 61 0
	cmpl	%edx, %esi
	jle	.L108
	.loc 1 62 0
	movslq	%edx, %rsi
.LVL45:
	leaq	(%rdi,%rsi,8), %rdi
.LVL46:
	vmovsd	(%rdi), %xmm15
	vandpd	%xmm15, %xmm11, %xmm1
	vmovsd	%xmm1, (%rdi)
.L108:
.LBE28:
	.loc 1 63 0
	popq	%rbx
	popq	%r9
	.cfi_remember_state
	.cfi_def_cfa 10, 0
	popq	%rbp
	leaq	-8(%r9), %rsp
	.cfi_def_cfa 7, 8
	ret
.LVL47:
	.p2align 4,,10
	.p2align 3
.L109:
	.cfi_restore_state
	testl	%eax, %eax
	jne	.L62
.LBB29:
	.loc 1 61 0
	xorl	%edx, %edx
	jmp	.L53
.LVL48:
	.p2align 4,,10
	.p2align 3
.L107:
	vzeroupper
.LBE29:
	.loc 1 63 0
	popq	%rbx
	popq	%r9
	.cfi_remember_state
	.cfi_def_cfa 10, 0
	popq	%rbp
	leaq	-8(%r9), %rsp
	.cfi_def_cfa 7, 8
	ret
	.p2align 4,,10
	.p2align 3
.L57:
	.cfi_restore_state
	addl	$8, %r9d
.LBB30:
	.loc 1 62 0 discriminator 3
	vandpd	(%rcx,%rax), %ymm9, %ymm2
	vandpd	32(%rcx,%rax), %ymm9, %ymm3
	vandpd	64(%rcx,%rax), %ymm9, %ymm4
	vandpd	96(%rcx,%rax), %ymm9, %ymm5
	vmovapd	%ymm2, (%rcx,%rax)
	vandpd	128(%rcx,%rax), %ymm9, %ymm6
	vandpd	160(%rcx,%rax), %ymm9, %ymm7
	vandpd	192(%rcx,%rax), %ymm9, %ymm8
	vmovapd	%ymm3, 32(%rcx,%rax)
	vandpd	224(%rcx,%rax), %ymm9, %ymm10
	vmovapd	%ymm4, 64(%rcx,%rax)
	vmovapd	%ymm5, 96(%rcx,%rax)
	vmovapd	%ymm6, 128(%rcx,%rax)
	vmovapd	%ymm7, 160(%rcx,%rax)
	vmovapd	%ymm8, 192(%rcx,%rax)
	vmovapd	%ymm10, 224(%rcx,%rax)
	addq	$256, %rax
	cmpl	%r9d, %r10d
	ja	.L57
	jmp	.L106
.LBE30:
	.cfi_endproc
.LFE77:
	.size	absolute_value, .-absolute_value
	.section	.text.unlikely
.LCOLDE8:
	.text
.LHOTE8:
	.section	.rodata.str1.1,"aMS",@progbits,1
.LC9:
	.string	"%.3f\t "
	.section	.text.unlikely
.LCOLDB10:
	.text
.LHOTB10:
	.p2align 4,,15
	.globl	printmatrix
	.type	printmatrix, @function
printmatrix:
.LFB78:
	.loc 1 65 0
	.cfi_startproc
.LVL49:
	pushq	%rbp
	.cfi_def_cfa_offset 16
	.cfi_offset 6, -16
	movq	%rsp, %rbp
	.cfi_def_cfa_register 6
	pushq	%r15
	pushq	%r14
	pushq	%r13
	pushq	%r12
	pushq	%rbx
	subq	$24, %rsp
	.cfi_offset 15, -24
	.cfi_offset 14, -32
	.cfi_offset 13, -40
	.cfi_offset 12, -48
	.cfi_offset 3, -56
	call	mcount
	.loc 1 65 0
.LVL50:
.LBB31:
	.loc 1 66 0
	testl	%edi, %edi
	jle	.L111
	leal	-1(%rdi), %eax
	movq	%rdx, %r13
	movslq	%edi, %rdi
	leaq	8(%rdx,%rax,8), %rdx
.LVL51:
	movl	%esi, %r14d
	movq	%rdx, -64(%rbp)
	leaq	0(,%rdi,8), %r12
.LVL52:
	.p2align 4,,10
	.p2align 3
.L112:
.LBB32:
	.loc 1 68 0 discriminator 1
	testl	%r14d, %r14d
	jle	.L114
	leal	-1(%r14), %ecx
.LBB33:
.LBB34:
	.file 2 "/usr/include/bits/stdio2.h"
	.loc 2 104 0 discriminator 3
	vmovsd	0(%r13), %xmm0
	movl	$.LC9, %esi
	movl	$1, %edi
	andl	$7, %ecx
	movl	$1, %eax
.LBE34:
.LBE33:
	.loc 1 68 0 discriminator 3
	movl	$1, %r15d
	movl	%ecx, -52(%rbp)
.LVL53:
	leaq	0(%r13,%r12), %rbx
.LBB46:
.LBB35:
	.loc 2 104 0 discriminator 3
	call	__printf_chk
.LVL54:
.LBE35:
.LBE46:
	.loc 1 68 0 discriminator 3
	cmpl	%r14d, %r15d
	movl	-52(%rbp), %esi
	je	.L114
	testl	%esi, %esi
	je	.L116
	cmpl	$1, %esi
	je	.L141
	cmpl	$2, %esi
	je	.L142
	cmpl	$3, %esi
	je	.L143
	cmpl	$4, %esi
	je	.L144
	cmpl	$5, %esi
	je	.L145
	cmpl	$6, %esi
	je	.L146
.LBB47:
.LBB36:
	.loc 2 104 0
	vmovsd	(%rbx), %xmm0
	movl	$.LC9, %esi
	movl	$1, %edi
	movl	$1, %eax
.LBE36:
.LBE47:
	.loc 1 68 0
	movl	$2, %r15d
	addq	%r12, %rbx
.LBB48:
.LBB37:
	.loc 2 104 0
	call	__printf_chk
.LVL55:
.L146:
	vmovsd	(%rbx), %xmm0
	movl	$.LC9, %esi
.LBE37:
.LBE48:
	.loc 1 68 0
	addl	$1, %r15d
	addq	%r12, %rbx
.LBB49:
.LBB38:
	.loc 2 104 0
	movl	$1, %edi
	movl	$1, %eax
	call	__printf_chk
.LVL56:
.L145:
	vmovsd	(%rbx), %xmm0
	movl	$.LC9, %esi
.LBE38:
.LBE49:
	.loc 1 68 0
	addl	$1, %r15d
	addq	%r12, %rbx
.LBB50:
.LBB39:
	.loc 2 104 0
	movl	$1, %edi
	movl	$1, %eax
	call	__printf_chk
.LVL57:
.L144:
	vmovsd	(%rbx), %xmm0
	movl	$.LC9, %esi
.LBE39:
.LBE50:
	.loc 1 68 0
	addl	$1, %r15d
	addq	%r12, %rbx
.LBB51:
.LBB40:
	.loc 2 104 0
	movl	$1, %edi
	movl	$1, %eax
	call	__printf_chk
.LVL58:
.L143:
	vmovsd	(%rbx), %xmm0
	movl	$.LC9, %esi
.LBE40:
.LBE51:
	.loc 1 68 0
	addl	$1, %r15d
	addq	%r12, %rbx
.LBB52:
.LBB41:
	.loc 2 104 0
	movl	$1, %edi
	movl	$1, %eax
	call	__printf_chk
.LVL59:
.L142:
	vmovsd	(%rbx), %xmm0
	movl	$.LC9, %esi
.LBE41:
.LBE52:
	.loc 1 68 0
	addl	$1, %r15d
	addq	%r12, %rbx
.LBB53:
.LBB42:
	.loc 2 104 0
	movl	$1, %edi
	movl	$1, %eax
	call	__printf_chk
.LVL60:
.L141:
	vmovsd	(%rbx), %xmm0
	movl	$.LC9, %esi
.LBE42:
.LBE53:
	.loc 1 68 0
	addl	$1, %r15d
	addq	%r12, %rbx
.LBB54:
.LBB43:
	.loc 2 104 0
	movl	$1, %edi
	movl	$1, %eax
	call	__printf_chk
.LVL61:
.LBE43:
.LBE54:
	.loc 1 68 0
	cmpl	%r14d, %r15d
	je	.L114
.L116:
.LBB55:
.LBB44:
	.loc 2 104 0 discriminator 3
	vmovsd	(%rbx), %xmm0
	movl	$.LC9, %esi
	movl	$1, %edi
	addq	%r12, %rbx
	movl	$1, %eax
.LBE44:
.LBE55:
	.loc 1 68 0 discriminator 3
	addl	$8, %r15d
.LBB56:
.LBB45:
	.loc 2 104 0 discriminator 3
	call	__printf_chk
.LVL62:
	vmovsd	(%rbx), %xmm0
	movl	$.LC9, %esi
	addq	%r12, %rbx
	movl	$1, %edi
	movl	$1, %eax
	call	__printf_chk
.LVL63:
	vmovsd	(%rbx), %xmm0
	movl	$.LC9, %esi
	addq	%r12, %rbx
	movl	$1, %edi
	movl	$1, %eax
	call	__printf_chk
.LVL64:
	vmovsd	(%rbx), %xmm0
	movl	$.LC9, %esi
	addq	%r12, %rbx
	movl	$1, %edi
	movl	$1, %eax
	call	__printf_chk
.LVL65:
	vmovsd	(%rbx), %xmm0
	movl	$.LC9, %esi
	addq	%r12, %rbx
	movl	$1, %edi
	movl	$1, %eax
	call	__printf_chk
.LVL66:
	vmovsd	(%rbx), %xmm0
	movl	$.LC9, %esi
	addq	%r12, %rbx
	movl	$1, %edi
	movl	$1, %eax
	call	__printf_chk
.LVL67:
	vmovsd	(%rbx), %xmm0
	movl	$.LC9, %esi
	addq	%r12, %rbx
	movl	$1, %edi
	movl	$1, %eax
	call	__printf_chk
.LVL68:
	vmovsd	(%rbx), %xmm0
	movl	$.LC9, %esi
	addq	%r12, %rbx
	movl	$1, %edi
	movl	$1, %eax
	call	__printf_chk
.LVL69:
.LBE45:
.LBE56:
	.loc 1 68 0 discriminator 3
	cmpl	%r14d, %r15d
	jne	.L116
.LVL70:
.L114:
.LBE32:
.LBB57:
.LBB58:
	.loc 2 104 0
	movl	$10, %edi
	addq	$8, %r13
	call	putchar
.LVL71:
.LBE58:
.LBE57:
	.loc 1 66 0
	cmpq	-64(%rbp), %r13
	jne	.L112
.LVL72:
.L111:
.LBE31:
	.loc 1 73 0
	addq	$24, %rsp
.LBB59:
.LBB60:
	.loc 2 104 0
	movl	$10, %edi
.LBE60:
.LBE59:
	.loc 1 73 0
	popq	%rbx
	popq	%r12
	popq	%r13
	popq	%r14
	popq	%r15
	popq	%rbp
	.cfi_def_cfa 7, 8
.LBB62:
.LBB61:
	.loc 2 104 0
	jmp	putchar
.LVL73:
.LBE61:
.LBE62:
	.cfi_endproc
.LFE78:
	.size	printmatrix, .-printmatrix
	.section	.text.unlikely
.LCOLDE10:
	.text
.LHOTE10:
	.section	.rodata.str1.1
.LC12:
	.string	"Description:\t%s\n\n"
	.section	.rodata.str1.8,"aMS",@progbits,1
	.align 8
.LC13:
	.string	"failed to allocate largest problem size"
	.section	.rodata.str1.1
.LC14:
	.string	"L1\tL2\tGflops"
.LC15:
	.string	"%d\t%d\t"
.LC19:
	.string	"%.3f\n"
	.section	.text.unlikely
.LCOLDB20:
	.section	.text.startup,"ax",@progbits
.LHOTB20:
	.p2align 4,,15
	.globl	main
	.type	main, @function
main:
.LFB79:
	.loc 1 76 0
	.cfi_startproc
.LVL74:
	pushq	%rbp
	.cfi_def_cfa_offset 16
	.cfi_offset 6, -16
	movq	%rsp, %rbp
	.cfi_def_cfa_register 6
	pushq	%r15
	pushq	%r14
	pushq	%r13
	pushq	%r12
	pushq	%rbx
	subq	$152, %rsp
	.cfi_offset 15, -24
	.cfi_offset 14, -32
	.cfi_offset 13, -40
	.cfi_offset 12, -48
	.cfi_offset 3, -56
	call	mcount
	.loc 1 76 0
.LBB92:
.LBB93:
	.loc 2 104 0
	movq	dgemm_desc(%rip), %rdx
	movl	$.LC12, %esi
.LVL75:
	movl	$1, %edi
.LVL76:
.LBE93:
.LBE92:
	.loc 1 76 0
	movq	%fs:40, %rax
	movq	%rax, -56(%rbp)
	xorl	%eax, %eax
.LVL77:
.LBB95:
.LBB94:
	.loc 2 104 0
	call	__printf_chk
.LVL78:
.LBE94:
.LBE95:
	.loc 1 97 0
	movl	$14192664, %edi
	.loc 1 81 0
	movl	$4, -96(%rbp)
	movl	$31, -92(%rbp)
	movl	$96, -88(%rbp)
	movl	$129, -84(%rbp)
	movl	$192, -80(%rbp)
	movl	$255, -76(%rbp)
	movl	$320, -72(%rbp)
	movl	$479, -68(%rbp)
	movl	$512, -64(%rbp)
	movl	$769, -60(%rbp)
.LVL79:
	.loc 1 97 0
	call	malloc
.LVL80:
	movq	%rax, %rbx
.LVL81:
	.loc 1 98 0
	testq	%rax, %rax
	je	.L313
.LVL82:
	leaq	9461776(%rbx), %r12
.LBB96:
.LBB97:
	.loc 2 104 0
	movl	$.LC14, %edi
	call	puts
.LVL83:
	leaq	-96(%rbp), %rdx
	movl	$32, -124(%rbp)
	leaq	4730888(%rbx), %rax
	addq	$40, %rdx
	movq	%rax, -184(%rbp)
	movq	%rdx, -192(%rbp)
.LVL84:
.L163:
.LBE97:
.LBE96:
.LBB98:
.LBB99:
.LBB100:
.LBB101:
.LBB102:
	movl	-124(%rbp), %ecx
	movl	$32, %edx
	movl	$.LC15, %esi
	xorl	%eax, %eax
	movl	$1, %edi
	call	__printf_chk
.LVL85:
	leaq	-96(%rbp), %r10
	movq	$0, -168(%rbp)
	movq	%r10, -160(%rbp)
.LVL86:
	.p2align 4,,10
	.p2align 3
.L162:
.LBE102:
.LBE101:
.LBB103:
.LBB104:
	.loc 1 110 0
	movl	(%r10), %r13d
.LVL87:
	.loc 1 116 0
	movl	%r13d, %r15d
	imull	%r13d, %r15d
.LVL88:
.LBB105:
.LBB106:
	.loc 1 53 0
	testl	%r15d, %r15d
	je	.L156
	leal	-1(%r15), %esi
	leaq	8(%rbx,%rsi,8), %rcx
	andl	$7, %esi
	movq	%rcx, -120(%rbp)
	leaq	8(%rbx), %r14
	movq	%rsi, -136(%rbp)
.LVL89:
	.loc 1 54 0
	call	drand48
.LVL90:
	.loc 1 53 0
	cmpq	-120(%rbp), %r14
	.loc 1 54 0
	vaddsd	%xmm0, %xmm0, %xmm0
	.loc 1 53 0
	movq	-136(%rbp), %rdi
	.loc 1 54 0
	vsubsd	.LC0(%rip), %xmm0, %xmm1
	vmovsd	%xmm1, (%rbx)
	.loc 1 53 0
	je	.L299
	testq	%rdi, %rdi
	je	.L157
	cmpq	$1, %rdi
	je	.L268
	cmpq	$2, %rdi
	je	.L269
	cmpq	$3, %rdi
	je	.L270
	cmpq	$4, %rdi
	je	.L271
	cmpq	$5, %rdi
	je	.L272
	cmpq	$6, %rdi
	je	.L273
	.loc 1 54 0
	call	drand48
.LVL91:
	leaq	16(%rbx), %r14
	vaddsd	%xmm0, %xmm0, %xmm2
	vsubsd	.LC0(%rip), %xmm2, %xmm3
	vmovsd	%xmm3, 8(%rbx)
.L273:
	call	drand48
.LVL92:
	addq	$8, %r14
	vaddsd	%xmm0, %xmm0, %xmm4
	vsubsd	.LC0(%rip), %xmm4, %xmm5
	vmovsd	%xmm5, -8(%r14)
.L272:
	call	drand48
.LVL93:
	addq	$8, %r14
	vaddsd	%xmm0, %xmm0, %xmm6
	vsubsd	.LC0(%rip), %xmm6, %xmm7
	vmovsd	%xmm7, -8(%r14)
.L271:
	call	drand48
.LVL94:
	addq	$8, %r14
	vaddsd	%xmm0, %xmm0, %xmm8
	vsubsd	.LC0(%rip), %xmm8, %xmm9
	vmovsd	%xmm9, -8(%r14)
.L270:
	call	drand48
.LVL95:
	addq	$8, %r14
	vaddsd	%xmm0, %xmm0, %xmm10
	vsubsd	.LC0(%rip), %xmm10, %xmm11
	vmovsd	%xmm11, -8(%r14)
.L269:
	call	drand48
.LVL96:
	addq	$8, %r14
	vaddsd	%xmm0, %xmm0, %xmm12
	vsubsd	.LC0(%rip), %xmm12, %xmm13
	vmovsd	%xmm13, -8(%r14)
.L268:
	call	drand48
.LVL97:
	addq	$8, %r14
	vaddsd	%xmm0, %xmm0, %xmm14
	vsubsd	.LC0(%rip), %xmm14, %xmm15
	vmovsd	%xmm15, -8(%r14)
	.loc 1 53 0
	cmpq	-120(%rbp), %r14
	je	.L299
.L157:
	.loc 1 54 0
	call	drand48
.LVL98:
	addq	$64, %r14
	vaddsd	%xmm0, %xmm0, %xmm0
	vsubsd	.LC0(%rip), %xmm0, %xmm1
	vmovsd	%xmm1, -64(%r14)
	call	drand48
.LVL99:
	vaddsd	%xmm0, %xmm0, %xmm2
	vsubsd	.LC0(%rip), %xmm2, %xmm3
	vmovsd	%xmm3, -56(%r14)
	call	drand48
.LVL100:
	vaddsd	%xmm0, %xmm0, %xmm4
	vsubsd	.LC0(%rip), %xmm4, %xmm5
	vmovsd	%xmm5, -48(%r14)
	call	drand48
.LVL101:
	vaddsd	%xmm0, %xmm0, %xmm6
	vsubsd	.LC0(%rip), %xmm6, %xmm7
	vmovsd	%xmm7, -40(%r14)
	call	drand48
.LVL102:
	vaddsd	%xmm0, %xmm0, %xmm8
	vsubsd	.LC0(%rip), %xmm8, %xmm9
	vmovsd	%xmm9, -32(%r14)
	call	drand48
.LVL103:
	vaddsd	%xmm0, %xmm0, %xmm10
	vsubsd	.LC0(%rip), %xmm10, %xmm11
	vmovsd	%xmm11, -24(%r14)
	call	drand48
.LVL104:
	vaddsd	%xmm0, %xmm0, %xmm12
	vsubsd	.LC0(%rip), %xmm12, %xmm13
	vmovsd	%xmm13, -16(%r14)
	call	drand48
.LVL105:
	vaddsd	%xmm0, %xmm0, %xmm14
	vsubsd	.LC0(%rip), %xmm14, %xmm15
	vmovsd	%xmm15, -8(%r14)
	.loc 1 53 0
	cmpq	-120(%rbp), %r14
	jne	.L157
.L299:
	leal	-1(%r15), %r8d
	movl	$1, %r14d
	andl	$7, %r8d
	movl	%r8d, -120(%rbp)
.LVL106:
.LBE106:
.LBE105:
.LBB107:
.LBB108:
	.loc 1 54 0
	call	drand48
.LVL107:
	.loc 1 53 0
	cmpl	$1, %r15d
	movl	-120(%rbp), %r9d
	.loc 1 54 0
	vaddsd	%xmm0, %xmm0, %xmm0
	vsubsd	.LC0(%rip), %xmm0, %xmm1
	vmovsd	%xmm1, 4730888(%rbx)
.LVL108:
	.loc 1 53 0
	jle	.L300
	testl	%r9d, %r9d
	je	.L308
	cmpl	$1, %r9d
	je	.L262
	cmpl	$2, %r9d
	je	.L263
	cmpl	$3, %r9d
	je	.L264
	cmpl	$4, %r9d
	je	.L265
	cmpl	$5, %r9d
	je	.L266
	cmpl	$6, %r9d
	je	.L267
.LVL109:
	.loc 1 54 0
	call	drand48
.LVL110:
	movl	$2, %r14d
	vaddsd	%xmm0, %xmm0, %xmm2
	vsubsd	.LC0(%rip), %xmm2, %xmm3
	vmovsd	%xmm3, 4730896(%rbx)
.LVL111:
.L267:
	call	drand48
.LVL112:
	vaddsd	%xmm0, %xmm0, %xmm4
	vsubsd	.LC0(%rip), %xmm4, %xmm5
	vmovsd	%xmm5, 4730888(%rbx,%r14,8)
.LVL113:
	addq	$1, %r14
.LVL114:
.L266:
	call	drand48
.LVL115:
	vaddsd	%xmm0, %xmm0, %xmm6
	vsubsd	.LC0(%rip), %xmm6, %xmm7
	vmovsd	%xmm7, 4730888(%rbx,%r14,8)
.LVL116:
	addq	$1, %r14
.LVL117:
.L265:
	call	drand48
.LVL118:
	vaddsd	%xmm0, %xmm0, %xmm8
	vsubsd	.LC0(%rip), %xmm8, %xmm9
	vmovsd	%xmm9, 4730888(%rbx,%r14,8)
.LVL119:
	addq	$1, %r14
.LVL120:
.L264:
	call	drand48
.LVL121:
	vaddsd	%xmm0, %xmm0, %xmm10
	vsubsd	.LC0(%rip), %xmm10, %xmm11
	vmovsd	%xmm11, 4730888(%rbx,%r14,8)
.LVL122:
	addq	$1, %r14
.LVL123:
.L263:
	call	drand48
.LVL124:
	vaddsd	%xmm0, %xmm0, %xmm12
	vsubsd	.LC0(%rip), %xmm12, %xmm13
	vmovsd	%xmm13, 4730888(%rbx,%r14,8)
.LVL125:
	addq	$1, %r14
.LVL126:
.L262:
	call	drand48
.LVL127:
	vaddsd	%xmm0, %xmm0, %xmm14
	vsubsd	.LC0(%rip), %xmm14, %xmm15
	vmovsd	%xmm15, 4730888(%rbx,%r14,8)
.LVL128:
	addq	$1, %r14
	.loc 1 53 0
	cmpl	%r14d, %r15d
	jle	.L300
.LVL129:
.L308:
	movq	%r12, -120(%rbp)
.L158:
.LVL130:
	.loc 1 54 0
	call	drand48
.LVL131:
	leaq	1(%r14), %r12
	vaddsd	%xmm0, %xmm0, %xmm0
	vsubsd	.LC0(%rip), %xmm0, %xmm1
	vmovsd	%xmm1, 4730888(%rbx,%r14,8)
.LVL132:
	call	drand48
.LVL133:
	vaddsd	%xmm0, %xmm0, %xmm2
	vsubsd	.LC0(%rip), %xmm2, %xmm3
	vmovsd	%xmm3, 4730888(%rbx,%r12,8)
.LVL134:
	leaq	2(%r14), %r12
.LVL135:
	call	drand48
.LVL136:
	vaddsd	%xmm0, %xmm0, %xmm4
	vsubsd	.LC0(%rip), %xmm4, %xmm5
	vmovsd	%xmm5, 4730888(%rbx,%r12,8)
.LVL137:
	leaq	3(%r14), %r12
.LVL138:
	call	drand48
.LVL139:
	vaddsd	%xmm0, %xmm0, %xmm6
	vsubsd	.LC0(%rip), %xmm6, %xmm7
	vmovsd	%xmm7, 4730888(%rbx,%r12,8)
.LVL140:
	leaq	4(%r14), %r12
.LVL141:
	call	drand48
.LVL142:
	vaddsd	%xmm0, %xmm0, %xmm8
	vsubsd	.LC0(%rip), %xmm8, %xmm9
	vmovsd	%xmm9, 4730888(%rbx,%r12,8)
.LVL143:
	leaq	5(%r14), %r12
.LVL144:
	call	drand48
.LVL145:
	vaddsd	%xmm0, %xmm0, %xmm10
	vsubsd	.LC0(%rip), %xmm10, %xmm11
	vmovsd	%xmm11, 4730888(%rbx,%r12,8)
.LVL146:
	leaq	6(%r14), %r12
.LVL147:
	call	drand48
.LVL148:
	vaddsd	%xmm0, %xmm0, %xmm12
	vsubsd	.LC0(%rip), %xmm12, %xmm13
	vmovsd	%xmm13, 4730888(%rbx,%r12,8)
.LVL149:
	leaq	7(%r14), %r12
.LVL150:
	addq	$8, %r14
	call	drand48
.LVL151:
	vaddsd	%xmm0, %xmm0, %xmm14
	vsubsd	.LC0(%rip), %xmm14, %xmm15
	vmovsd	%xmm15, 4730888(%rbx,%r12,8)
.LVL152:
	.loc 1 53 0
	cmpl	%r14d, %r15d
	jg	.L158
	movq	-120(%rbp), %r12
.LVL153:
.L300:
	leal	-1(%r15), %r10d
	movl	$1, %r14d
	andl	$7, %r10d
	movl	%r10d, -120(%rbp)
.LVL154:
.LBE108:
.LBE107:
.LBB110:
.LBB111:
	.loc 1 54 0
	call	drand48
.LVL155:
	.loc 1 53 0
	cmpl	$1, %r15d
	movl	-120(%rbp), %r11d
	.loc 1 54 0
	vaddsd	%xmm0, %xmm0, %xmm0
	vsubsd	.LC0(%rip), %xmm0, %xmm1
	vmovsd	%xmm1, (%r12)
.LVL156:
	.loc 1 53 0
	jle	.L156
	testl	%r11d, %r11d
	je	.L306
	cmpl	$1, %r11d
	je	.L256
	cmpl	$2, %r11d
	je	.L257
	cmpl	$3, %r11d
	je	.L258
	cmpl	$4, %r11d
	je	.L259
	cmpl	$5, %r11d
	je	.L260
	cmpl	$6, %r11d
	je	.L261
.LVL157:
	.loc 1 54 0
	call	drand48
.LVL158:
	movl	$2, %r14d
	vaddsd	%xmm0, %xmm0, %xmm2
	vsubsd	.LC0(%rip), %xmm2, %xmm3
	vmovsd	%xmm3, 8(%r12)
.LVL159:
.L261:
	call	drand48
.LVL160:
	vaddsd	%xmm0, %xmm0, %xmm4
	vsubsd	.LC0(%rip), %xmm4, %xmm5
	vmovsd	%xmm5, (%r12,%r14,8)
.LVL161:
	addq	$1, %r14
.LVL162:
.L260:
	call	drand48
.LVL163:
	vaddsd	%xmm0, %xmm0, %xmm6
	vsubsd	.LC0(%rip), %xmm6, %xmm7
	vmovsd	%xmm7, (%r12,%r14,8)
.LVL164:
	addq	$1, %r14
.LVL165:
.L259:
	call	drand48
.LVL166:
	vaddsd	%xmm0, %xmm0, %xmm8
	vsubsd	.LC0(%rip), %xmm8, %xmm9
	vmovsd	%xmm9, (%r12,%r14,8)
.LVL167:
	addq	$1, %r14
.LVL168:
.L258:
	call	drand48
.LVL169:
	vaddsd	%xmm0, %xmm0, %xmm10
	vsubsd	.LC0(%rip), %xmm10, %xmm11
	vmovsd	%xmm11, (%r12,%r14,8)
.LVL170:
	addq	$1, %r14
.LVL171:
.L257:
	call	drand48
.LVL172:
	vaddsd	%xmm0, %xmm0, %xmm12
	vsubsd	.LC0(%rip), %xmm12, %xmm13
	vmovsd	%xmm13, (%r12,%r14,8)
.LVL173:
	addq	$1, %r14
.LVL174:
.L256:
	call	drand48
.LVL175:
	vaddsd	%xmm0, %xmm0, %xmm14
	vsubsd	.LC0(%rip), %xmm14, %xmm15
	vmovsd	%xmm15, (%r12,%r14,8)
.LVL176:
	addq	$1, %r14
	.loc 1 53 0
	cmpl	%r14d, %r15d
	jle	.L156
.LVL177:
.L306:
	movq	%rbx, -120(%rbp)
.L159:
.LVL178:
	.loc 1 54 0
	call	drand48
.LVL179:
	leaq	1(%r14), %rbx
	vaddsd	%xmm0, %xmm0, %xmm0
	vsubsd	.LC0(%rip), %xmm0, %xmm1
	vmovsd	%xmm1, (%r12,%r14,8)
.LVL180:
	call	drand48
.LVL181:
	vaddsd	%xmm0, %xmm0, %xmm2
	vsubsd	.LC0(%rip), %xmm2, %xmm3
	vmovsd	%xmm3, (%r12,%rbx,8)
.LVL182:
	leaq	2(%r14), %rbx
.LVL183:
	call	drand48
.LVL184:
	vaddsd	%xmm0, %xmm0, %xmm4
	vsubsd	.LC0(%rip), %xmm4, %xmm5
	vmovsd	%xmm5, (%r12,%rbx,8)
.LVL185:
	leaq	3(%r14), %rbx
.LVL186:
	call	drand48
.LVL187:
	vaddsd	%xmm0, %xmm0, %xmm6
	vsubsd	.LC0(%rip), %xmm6, %xmm7
	vmovsd	%xmm7, (%r12,%rbx,8)
.LVL188:
	leaq	4(%r14), %rbx
.LVL189:
	call	drand48
.LVL190:
	vaddsd	%xmm0, %xmm0, %xmm8
	vsubsd	.LC0(%rip), %xmm8, %xmm9
	vmovsd	%xmm9, (%r12,%rbx,8)
.LVL191:
	leaq	5(%r14), %rbx
.LVL192:
	call	drand48
.LVL193:
	vaddsd	%xmm0, %xmm0, %xmm10
	vsubsd	.LC0(%rip), %xmm10, %xmm11
	vmovsd	%xmm11, (%r12,%rbx,8)
.LVL194:
	leaq	6(%r14), %rbx
.LVL195:
	call	drand48
.LVL196:
	vaddsd	%xmm0, %xmm0, %xmm12
	vsubsd	.LC0(%rip), %xmm12, %xmm13
	vmovsd	%xmm13, (%r12,%rbx,8)
.LVL197:
	leaq	7(%r14), %rbx
.LVL198:
	addq	$8, %r14
	call	drand48
.LVL199:
	vaddsd	%xmm0, %xmm0, %xmm14
	vsubsd	.LC0(%rip), %xmm14, %xmm15
	vmovsd	%xmm15, (%r12,%rbx,8)
.LVL200:
	.loc 1 53 0
	cmpl	%r14d, %r15d
	jg	.L159
	movq	-120(%rbp), %rbx
.LVL201:
.L156:
	vxorpd	%xmm0, %xmm0, %xmm0
	vcvtsi2sd	%r13d, %xmm0, %xmm1
	movq	-184(%rbp), %r15
.LVL202:
.LBE111:
.LBE110:
.LBB112:
.LBB109:
	movl	$1, %eax
	movl	%eax, -120(%rbp)
	vmovsd	%xmm1, -176(%rbp)
.LVL203:
	.p2align 4,,10
	.p2align 3
.L161:
.LBE109:
.LBE112:
.LBB113:
.LBB114:
	.loc 1 128 0
	movl	-124(%rbp), %r14d
	movl	$32, %r8d
	movq	%r12, %rcx
	movq	%r15, %rdx
	movq	%rbx, %rsi
	movl	%r13d, %edi
	xorl	%eax, %eax
	movl	%r14d, %r9d
	call	square_dgemm_l1l2
.LVL204:
.LBB115:
.LBB116:
	.loc 1 40 0
	leaq	-112(%rbp), %rsi
	movl	$1, %edi
	call	clock_gettime
.LVL205:
	movl	-120(%rbp), %edx
	.loc 1 41 0
	vxorpd	%xmm4, %xmm4, %xmm4
.LBE116:
.LBE115:
.LBB122:
	.loc 1 133 0
	movl	%r14d, %r9d
.LBE122:
.LBB123:
.LBB117:
	.loc 1 41 0
	vxorpd	%xmm2, %xmm2, %xmm2
.LBE117:
.LBE123:
.LBB124:
	.loc 1 133 0
	movq	%r12, %rcx
	xorl	%eax, %eax
	movl	$32, %r8d
.LBE124:
.LBB125:
.LBB118:
	.loc 1 41 0
	vcvtsi2sdq	-104(%rbp), %xmm4, %xmm5
.LBE118:
.LBE125:
.LBB126:
	.loc 1 133 0
	movl	%r13d, %edi
.LBE126:
.LBB127:
.LBB119:
	.loc 1 41 0
	vmulsd	.LC2(%rip), %xmm5, %xmm6
.LBE119:
.LBE127:
.LBB128:
	.loc 1 132 0
	movl	$1, %r14d
.LBE128:
.LBB129:
.LBB120:
	.loc 1 41 0
	vcvtsi2sdq	-112(%rbp), %xmm2, %xmm3
	leal	-1(%rdx), %esi
.LBE120:
.LBE129:
.LBB130:
	.loc 1 133 0
	movq	%r15, %rdx
	andl	$3, %esi
	movl	%esi, -136(%rbp)
	movq	%rbx, %rsi
.LBE130:
.LBB131:
.LBB121:
	.loc 1 41 0
	vmovsd	%xmm3, -144(%rbp)
	vmovsd	%xmm6, -152(%rbp)
.LVL206:
.LBE121:
.LBE131:
.LBB132:
	.loc 1 133 0
	call	square_dgemm_l1l2
.LVL207:
	.loc 1 132 0
	cmpl	-120(%rbp), %r14d
	movl	-136(%rbp), %ecx
	je	.L301
	testl	%ecx, %ecx
	je	.L304
	cmpl	$1, %ecx
	je	.L254
	cmpl	$2, %ecx
	je	.L255
	.loc 1 133 0
	movl	-124(%rbp), %r9d
	movl	$32, %r8d
	movq	%r12, %rcx
	movq	%r15, %rdx
	movq	%rbx, %rsi
	movl	%r13d, %edi
	xorl	%eax, %eax
	.loc 1 132 0
	movl	$2, %r14d
	.loc 1 133 0
	call	square_dgemm_l1l2
.LVL208:
.L255:
	movl	-124(%rbp), %r9d
	movl	$32, %r8d
	movq	%r12, %rcx
	movq	%r15, %rdx
	movq	%rbx, %rsi
	movl	%r13d, %edi
	xorl	%eax, %eax
	.loc 1 132 0
	addl	$1, %r14d
	.loc 1 133 0
	call	square_dgemm_l1l2
.LVL209:
.L254:
	movl	-124(%rbp), %r9d
	movl	$32, %r8d
	movq	%r12, %rcx
	movq	%r15, %rdx
	movq	%rbx, %rsi
	movl	%r13d, %edi
	xorl	%eax, %eax
	.loc 1 132 0
	addl	$1, %r14d
	.loc 1 133 0
	call	square_dgemm_l1l2
.LVL210:
	.loc 1 132 0
	cmpl	-120(%rbp), %r14d
	je	.L301
.L304:
	movl	%r14d, %edi
	movq	%r12, %r14
	movl	-124(%rbp), %r12d
.L160:
	movl	%edi, -136(%rbp)
	.loc 1 133 0 discriminator 3
	movl	%r12d, %r9d
	movq	%r14, %rcx
	movq	%r15, %rdx
	movl	$32, %r8d
	movq	%rbx, %rsi
	movl	%r13d, %edi
	xorl	%eax, %eax
	call	square_dgemm_l1l2
.LVL211:
	movl	%r12d, %r9d
	movl	$32, %r8d
	xorl	%eax, %eax
	movq	%r14, %rcx
	movq	%r15, %rdx
	movq	%rbx, %rsi
	movl	%r13d, %edi
	call	square_dgemm_l1l2
.LVL212:
	movl	%r12d, %r9d
	movl	$32, %r8d
	xorl	%eax, %eax
	movq	%r14, %rcx
	movq	%r15, %rdx
	movq	%rbx, %rsi
	movl	%r13d, %edi
	call	square_dgemm_l1l2
.LVL213:
	movl	%r13d, %edi
	movl	%r12d, %r9d
	movq	%r14, %rcx
	movl	$32, %r8d
	movq	%r15, %rdx
	movq	%rbx, %rsi
	xorl	%eax, %eax
	call	square_dgemm_l1l2
.LVL214:
	.loc 1 132 0 discriminator 3
	movl	-136(%rbp), %edi
	addl	$4, %edi
	cmpl	-120(%rbp), %edi
	jne	.L160
	movq	%r14, %r12
	movl	%edi, %r14d
.L301:
.LBE132:
.LBB133:
.LBB134:
	.loc 1 40 0
	leaq	-112(%rbp), %rsi
	movl	$1, %edi
	call	clock_gettime
.LVL215:
	.loc 1 41 0
	vxorpd	%xmm7, %xmm7, %xmm7
	vxorpd	%xmm9, %xmm9, %xmm9
.LBE134:
.LBE133:
.LBE114:
	.loc 1 125 0
	vmovsd	.LC16(%rip), %xmm15
.LBB137:
.LBB136:
.LBB135:
	.loc 1 41 0
	vcvtsi2sdq	-112(%rbp), %xmm7, %xmm8
	vcvtsi2sdq	-104(%rbp), %xmm9, %xmm10
	vmulsd	.LC2(%rip), %xmm10, %xmm11
	vsubsd	-144(%rbp), %xmm11, %xmm12
.LBE135:
.LBE136:
.LBE137:
	.loc 1 125 0
	leal	(%r14,%r14), %r8d
	vaddsd	%xmm8, %xmm12, %xmm13
.LBB138:
	.loc 1 134 0
	vsubsd	-152(%rbp), %xmm13, %xmm14
.LVL216:
.LBE138:
	.loc 1 125 0
	vcomisd	%xmm14, %xmm15
	jbe	.L314
	movl	%r8d, -120(%rbp)
	jmp	.L161
	.p2align 4,,10
	.p2align 3
.L314:
	vmovsd	-176(%rbp), %xmm0
.LBB139:
	.loc 1 137 0
	vxorpd	%xmm5, %xmm5, %xmm5
	vcvtsi2sd	%r14d, %xmm5, %xmm6
	addq	$4, -160(%rbp)
	vmulsd	%xmm0, %xmm0, %xmm2
	movq	-160(%rbp), %r10
	vmulsd	.LC17(%rip), %xmm2, %xmm3
	vmulsd	%xmm0, %xmm3, %xmm4
	vmulsd	%xmm6, %xmm4, %xmm7
	vdivsd	%xmm14, %xmm7, %xmm8
.LBE139:
.LBE113:
	.loc 1 140 0
	vaddsd	-168(%rbp), %xmm8, %xmm9
	vmovsd	%xmm9, -168(%rbp)
.LVL217:
.LBE104:
	.loc 1 108 0
	cmpq	-192(%rbp), %r10
	jne	.L162
.LVL218:
.LBE103:
.LBB140:
.LBB141:
	.loc 2 104 0
	movl	$.LC19, %esi
	movl	$1, %edi
	movl	$1, %eax
.LBE141:
.LBE140:
	.loc 1 142 0
	vmovsd	.LC18(%rip), %xmm10
	vmulsd	-168(%rbp), %xmm10, %xmm0
.LBB143:
.LBB142:
	.loc 2 104 0
	call	__printf_chk
.LVL219:
.LBE142:
.LBE143:
.LBE100:
	.loc 1 104 0
	addl	$4, -124(%rbp)
.LVL220:
	movl	-124(%rbp), %r11d
.LVL221:
	cmpl	$512, %r11d
	jne	.L163
.LVL222:
.LBE99:
.LBE98:
	.loc 1 151 0 discriminator 2
	movq	%rbx, %rdi
	call	free
.LVL223:
	.loc 1 156 0 discriminator 2
	xorl	%eax, %eax
	movq	-56(%rbp), %rdx
	xorq	%fs:40, %rdx
	jne	.L315
	.loc 1 156 0 is_stmt 0
	addq	$152, %rsp
	popq	%rbx
	popq	%r12
	popq	%r13
.LVL224:
	popq	%r14
.LVL225:
	popq	%r15
	popq	%rbp
	.cfi_remember_state
	.cfi_def_cfa 7, 8
.LVL226:
	ret
.LVL227:
.L313:
	.cfi_restore_state
	.loc 1 98 0 is_stmt 1 discriminator 1
	movl	$.LC13, %edi
	call	die
.LVL228:
.L315:
	.loc 1 156 0
	call	__stack_chk_fail
.LVL229:
	.cfi_endproc
.LFE79:
	.size	main, .-main
	.section	.text.unlikely
.LCOLDE20:
	.section	.text.startup
.LHOTE20:
	.section	.rodata.cst8,"aM",@progbits,8
	.align 8
.LC0:
	.long	0
	.long	1072693248
	.align 8
.LC2:
	.long	3894859413
	.long	1041313291
	.section	.rodata.cst16,"aM",@progbits,16
	.align 16
.LC6:
	.long	4294967295
	.long	2147483647
	.long	0
	.long	0
	.section	.rodata.cst32,"aM",@progbits,32
	.align 32
.LC7:
	.long	4294967295
	.long	2147483647
	.long	4294967295
	.long	2147483647
	.long	4294967295
	.long	2147483647
	.long	4294967295
	.long	2147483647
	.section	.rodata.cst8
	.align 8
.LC16:
	.long	1202590843
	.long	1065646817
	.align 8
.LC17:
	.long	3894859413
	.long	1042361867
	.align 8
.LC18:
	.long	2576980378
	.long	1069128089
	.text
.Letext0:
	.section	.text.unlikely
.Letext_cold0:
	.file 3 "/usr/lib/gcc/x86_64-pc-linux-gnu/4.9.3/include/stddef.h"
	.file 4 "/usr/include/bits/types.h"
	.file 5 "/usr/include/time.h"
	.file 6 "/usr/include/libio.h"
	.file 7 "/opt/intel/compilers_and_libraries_2016.2.181/linux/mkl/include/mkl_cblas.h"
	.file 8 "/usr/include/stdio.h"
	.file 9 "/usr/include/stdlib.h"
	.file 10 "<built-in>"
	.section	.note.GNU-stack,"",@progbits
