	.file	"dgemm-avx.c"
	.text
.Ltext0:
	.section	.text.unlikely,"ax",@progbits
.LCOLDB0:
	.text
.LHOTB0:
	.p2align 4,,15
	.section	.text.unlikely
.Ltext_cold0:
	.text
	.globl	transpose
	.type	transpose, @function
transpose:
.LFB2249:
	.file 1 "dgemm-avx.c"
	.loc 1 13 0
	.cfi_startproc
.LVL0:
	pushq	%rbp
	.cfi_def_cfa_offset 16
	.cfi_offset 6, -16
	movq	%rsp, %rbp
	.cfi_def_cfa_register 6
	call	mcount
	.loc 1 13 0
.LVL1:
.LBB196:
	.loc 1 14 0
	testl	%edi, %edi
	jle	.L45
	leal	-1(%rdi), %eax
	movslq	%esi, %r9
	movslq	%edi, %rdi
	leaq	8(%rdx,%rax,8), %r10
	salq	$3, %r9
	leaq	0(,%rdi,8), %r8
.LVL2:
	.p2align 4,,10
	.p2align 3
.L3:
.LBB197:
	.loc 1 16 0 discriminator 1
	testl	%esi, %esi
	jle	.L5
	.loc 1 18 0 discriminator 3
	vmovsd	(%rdx), %xmm0
	leal	-1(%rsi), %r11d
	movl	$1, %edi
	leaq	(%rdx,%r8), %rax
	andl	$7, %r11d
	vmovsd	%xmm0, (%rcx)
.LVL3:
	.loc 1 16 0 discriminator 3
	cmpl	$1, %esi
	jle	.L5
	testl	%r11d, %r11d
	je	.L7
	cmpl	$1, %r11d
	je	.L32
	cmpl	$2, %r11d
	je	.L33
	cmpl	$3, %r11d
	je	.L34
	cmpl	$4, %r11d
	je	.L35
	cmpl	$5, %r11d
	je	.L36
	cmpl	$6, %r11d
	je	.L37
.LVL4:
	.loc 1 18 0
	vmovsd	(%rax), %xmm1
	movl	$2, %edi
	addq	%r8, %rax
	vmovsd	%xmm1, 8(%rcx)
.LVL5:
.L37:
	vmovsd	(%rax), %xmm2
	addq	%r8, %rax
	vmovsd	%xmm2, (%rcx,%rdi,8)
.LVL6:
	addq	$1, %rdi
.LVL7:
.L36:
	vmovsd	(%rax), %xmm3
	addq	%r8, %rax
	vmovsd	%xmm3, (%rcx,%rdi,8)
.LVL8:
	addq	$1, %rdi
.LVL9:
.L35:
	vmovsd	(%rax), %xmm4
	addq	%r8, %rax
	vmovsd	%xmm4, (%rcx,%rdi,8)
.LVL10:
	addq	$1, %rdi
.LVL11:
.L34:
	vmovsd	(%rax), %xmm5
	addq	%r8, %rax
	vmovsd	%xmm5, (%rcx,%rdi,8)
.LVL12:
	addq	$1, %rdi
.LVL13:
.L33:
	vmovsd	(%rax), %xmm6
	addq	%r8, %rax
	vmovsd	%xmm6, (%rcx,%rdi,8)
.LVL14:
	addq	$1, %rdi
.LVL15:
.L32:
	vmovsd	(%rax), %xmm7
	addq	%r8, %rax
	vmovsd	%xmm7, (%rcx,%rdi,8)
.LVL16:
	addq	$1, %rdi
	.loc 1 16 0
	cmpl	%edi, %esi
	jle	.L5
.LVL17:
.L7:
	.loc 1 18 0 discriminator 3
	vmovsd	(%rax), %xmm8
	addq	%r8, %rax
	vmovsd	%xmm8, (%rcx,%rdi,8)
.LVL18:
	vmovsd	(%rax), %xmm9
	addq	%r8, %rax
	vmovsd	%xmm9, 8(%rcx,%rdi,8)
.LVL19:
	vmovsd	(%rax), %xmm10
	addq	%r8, %rax
	vmovsd	%xmm10, 16(%rcx,%rdi,8)
.LVL20:
	vmovsd	(%rax), %xmm11
	addq	%r8, %rax
	vmovsd	%xmm11, 24(%rcx,%rdi,8)
.LVL21:
	vmovsd	(%rax), %xmm12
	addq	%r8, %rax
	vmovsd	%xmm12, 32(%rcx,%rdi,8)
.LVL22:
	vmovsd	(%rax), %xmm13
	addq	%r8, %rax
	vmovsd	%xmm13, 40(%rcx,%rdi,8)
.LVL23:
	vmovsd	(%rax), %xmm14
	addq	%r8, %rax
	vmovsd	%xmm14, 48(%rcx,%rdi,8)
.LVL24:
	vmovsd	(%rax), %xmm15
	addq	%r8, %rax
	vmovsd	%xmm15, 56(%rcx,%rdi,8)
.LVL25:
	addq	$8, %rdi
	.loc 1 16 0 discriminator 3
	cmpl	%edi, %esi
	jg	.L7
.LVL26:
.L5:
	addq	$8, %rdx
	addq	%r9, %rcx
.LBE197:
	.loc 1 14 0
	cmpq	%r10, %rdx
	jne	.L3
.L45:
.LBE196:
	.loc 1 21 0
	popq	%rbp
	.cfi_def_cfa 7, 8
	ret
	.cfi_endproc
.LFE2249:
	.size	transpose, .-transpose
	.section	.text.unlikely
.LCOLDE0:
	.text
.LHOTE0:
	.section	.text.unlikely
.LCOLDB1:
	.text
.LHOTB1:
	.p2align 4,,15
	.globl	do_4x4_block
	.type	do_4x4_block, @function
do_4x4_block:
.LFB2250:
	.loc 1 25 0
	.cfi_startproc
.LVL27:
	leaq	8(%rsp), %r10
	.cfi_def_cfa 10, 0
	andq	$-32, %rsp
	pushq	-8(%r10)
	pushq	%rbp
	.cfi_escape 0x10,0x6,0x2,0x76,0
	movq	%rsp, %rbp
	pushq	%r15
	pushq	%r14
	pushq	%r13
	pushq	%r12
	pushq	%r10
	.cfi_escape 0xf,0x3,0x76,0x58,0x6
	.cfi_escape 0x10,0xf,0x2,0x76,0x78
	.cfi_escape 0x10,0xe,0x2,0x76,0x70
	.cfi_escape 0x10,0xd,0x2,0x76,0x68
	.cfi_escape 0x10,0xc,0x2,0x76,0x60
	pushq	%rbx
	subq	$448, %rsp
	.cfi_escape 0x10,0x3,0x2,0x76,0x50
	call	mcount
	.loc 1 25 0
.LVL28:
	movq	(%r10), %r11
	.loc 1 29 0
	leal	(%rdx,%rdx), %eax
	.loc 1 28 0
	movslq	%edx, %rbx
	.loc 1 38 0
	vmovsd	(%r11), %xmm7
	.loc 1 29 0
	movslq	%eax, %r12
	.loc 1 30 0
	addl	%eax, %edx
.LVL29:
	.loc 1 42 0
	movslq	%edi, %rax
	.loc 1 39 0
	vmovsd	8(%r11), %xmm0
	.loc 1 42 0
	salq	$3, %rax
	.loc 1 30 0
	movslq	%edx, %rdx
	.loc 1 28 0
	salq	$3, %rbx
.LVL30:
	.loc 1 38 0
	vmovsd	%xmm7, -112(%rbp)
	.loc 1 42 0
	leaq	(%r11,%rax), %r10
	.loc 1 40 0
	vmovsd	16(%r11), %xmm1
	.loc 1 29 0
	salq	$3, %r12
.LVL31:
	.loc 1 39 0
	vmovsd	%xmm0, -104(%rbp)
	.loc 1 47 0
	leaq	(%r10,%rax), %rsi
.LVL32:
	.loc 1 41 0
	vmovsd	24(%r11), %xmm3
	.loc 1 30 0
	salq	$3, %rdx
.LVL33:
	.loc 1 52 0
	addq	%rsi, %rax
	.loc 1 43 0
	vmovsd	(%r10), %xmm4
	.loc 1 40 0
	vmovsd	%xmm1, -96(%rbp)
.LVL34:
	.loc 1 44 0
	vmovsd	8(%r10), %xmm2
	.loc 1 41 0
	vmovsd	%xmm3, -88(%rbp)
.LVL35:
	.loc 1 45 0
	vmovsd	16(%r10), %xmm5
	.loc 1 43 0
	vmovsd	%xmm4, -80(%rbp)
.LVL36:
	.loc 1 46 0
	vmovsd	24(%r10), %xmm6
	.loc 1 44 0
	vmovsd	%xmm2, -72(%rbp)
.LVL37:
	.loc 1 48 0
	vmovsd	(%rsi), %xmm8
	.loc 1 45 0
	vmovsd	%xmm5, -64(%rbp)
.LVL38:
	.loc 1 49 0
	vmovsd	8(%rsi), %xmm9
	.loc 1 46 0
	vmovsd	%xmm6, -56(%rbp)
.LVL39:
	.loc 1 50 0
	vmovsd	16(%rsi), %xmm10
	.loc 1 48 0
	vmovsd	%xmm8, -120(%rbp)
.LVL40:
	.loc 1 51 0
	vmovsd	24(%rsi), %xmm11
	.loc 1 49 0
	vmovsd	%xmm9, -176(%rbp)
.LVL41:
	.loc 1 53 0
	vmovsd	(%rax), %xmm12
	.loc 1 50 0
	vmovsd	%xmm10, -168(%rbp)
.LVL42:
	.loc 1 54 0
	vmovsd	8(%rax), %xmm13
	.loc 1 51 0
	vmovsd	%xmm11, -160(%rbp)
.LVL43:
	.loc 1 55 0
	vmovsd	16(%rax), %xmm14
	.loc 1 53 0
	vmovsd	%xmm12, -152(%rbp)
.LVL44:
	.loc 1 56 0
	vmovsd	24(%rax), %xmm15
	.loc 1 54 0
	vmovsd	%xmm13, -144(%rbp)
.LVL45:
	.loc 1 55 0
	vmovsd	%xmm14, -136(%rbp)
.LVL46:
	.loc 1 56 0
	vmovsd	%xmm15, -128(%rbp)
.LVL47:
.LBB198:
	.loc 1 59 0
	testl	%ecx, %ecx
	jle	.L48
	leal	-4(%rcx), %edi
.LVL48:
	leal	-1(%rcx), %r13d
	shrl	$2, %edi
	addl	$1, %edi
	movl	%edi, -476(%rbp)
	sall	$2, %edi
	movl	%edi, -472(%rbp)
	cmpl	$2, %r13d
	jbe	.L54
	leaq	(%r9,%rbx), %r14
.LVL49:
	vxorpd	%xmm9, %xmm9, %xmm9
.LVL50:
	xorl	%edi, %edi
	movl	$0, -468(%rbp)
	leaq	(%r14,%rbx), %r13
	vmovapd	%ymm9, %ymm8
.LVL51:
	vmovapd	%ymm9, %ymm7
.LVL52:
	vmovapd	%ymm9, -464(%rbp)
	leaq	0(%r13,%rbx), %r15
	vmovapd	%ymm9, %ymm6
.LVL53:
	vmovapd	%ymm9, %ymm5
.LVL54:
	vmovapd	%ymm9, -432(%rbp)
	vmovapd	%ymm9, %ymm4
.LVL55:
	vmovapd	%ymm9, %ymm3
.LVL56:
	vmovapd	%ymm9, -400(%rbp)
	vmovapd	%ymm9, -368(%rbp)
	vmovapd	%ymm9, -336(%rbp)
	vmovapd	%ymm9, -304(%rbp)
	vmovapd	%ymm9, -272(%rbp)
	vmovapd	%ymm9, -240(%rbp)
	vmovapd	%ymm9, -208(%rbp)
	movq	%rax, -488(%rbp)
.LVL57:
.L50:
	.loc 1 60 0 discriminator 3
	vmovupd	(%r9,%rdi), %xmm2
	vinsertf128	$0x1, 16(%r9,%rdi), %ymm2, %ymm13
.LVL58:
	.loc 1 61 0 discriminator 3
	vmovupd	(%r14,%rdi), %xmm10
	vinsertf128	$0x1, 16(%r14,%rdi), %ymm10, %ymm12
.LVL59:
	.loc 1 65 0 discriminator 3
	vmovupd	(%r8,%rdi,4), %xmm15
	vinsertf128	$0x1, 16(%r8,%rdi,4), %ymm15, %ymm0
	vmovupd	32(%r8,%rdi,4), %xmm1
	vinsertf128	$0x1, 48(%r8,%rdi,4), %ymm1, %ymm10
	vinsertf128	$1, %xmm10, %ymm0, %ymm1
	vperm2f128	$49, %ymm10, %ymm0, %ymm0
	vmovupd	64(%r8,%rdi,4), %xmm2
	vunpcklpd	%ymm0, %ymm1, %ymm10
	vinsertf128	$0x1, 80(%r8,%rdi,4), %ymm2, %ymm2
	vunpckhpd	%ymm0, %ymm1, %ymm1
	vmovupd	96(%r8,%rdi,4), %xmm15
	vinsertf128	$0x1, 112(%r8,%rdi,4), %ymm15, %ymm15
	vinsertf128	$1, %xmm15, %ymm2, %ymm0
	vperm2f128	$49, %ymm15, %ymm2, %ymm2
	vunpcklpd	%ymm2, %ymm0, %ymm15
	vunpckhpd	%ymm2, %ymm0, %ymm0
	vinsertf128	$1, %xmm15, %ymm10, %ymm2
	vperm2f128	$49, %ymm15, %ymm10, %ymm10
	vunpcklpd	%ymm10, %ymm2, %ymm15
	vunpckhpd	%ymm10, %ymm2, %ymm2
	vinsertf128	$1, %xmm0, %ymm1, %ymm10
	vperm2f128	$49, %ymm0, %ymm1, %ymm0
	vunpcklpd	%ymm0, %ymm10, %ymm1
	vunpckhpd	%ymm0, %ymm10, %ymm0
	.loc 1 72 0 discriminator 3
	vmulpd	%ymm13, %ymm15, %ymm10
	vaddpd	-208(%rbp), %ymm10, %ymm10
	.loc 1 62 0 discriminator 3
	vmovupd	0(%r13,%rdi), %xmm11
	vinsertf128	$0x1, 16(%r13,%rdi), %ymm11, %ymm11
.LVL60:
	.loc 1 63 0 discriminator 3
	vmovupd	(%r15,%rdi), %xmm14
	vinsertf128	$0x1, 16(%r15,%rdi), %ymm14, %ymm14
.LVL61:
	addq	$32, %rdi
	.loc 1 72 0 discriminator 3
	vmovapd	%ymm10, -208(%rbp)
	.loc 1 73 0 discriminator 3
	vmulpd	%ymm13, %ymm1, %ymm10
	vaddpd	-240(%rbp), %ymm10, %ymm10
	vmovapd	%ymm10, -240(%rbp)
	.loc 1 74 0 discriminator 3
	vmulpd	%ymm13, %ymm2, %ymm10
	.loc 1 75 0 discriminator 3
	vmulpd	%ymm13, %ymm0, %ymm13
	.loc 1 74 0 discriminator 3
	vaddpd	-272(%rbp), %ymm10, %ymm10
	vmovapd	%ymm10, -272(%rbp)
	.loc 1 75 0 discriminator 3
	vaddpd	-304(%rbp), %ymm13, %ymm10
	.loc 1 77 0 discriminator 3
	vmulpd	%ymm12, %ymm15, %ymm13
	.loc 1 75 0 discriminator 3
	vmovapd	%ymm10, -304(%rbp)
	.loc 1 77 0 discriminator 3
	vaddpd	-336(%rbp), %ymm13, %ymm10
	.loc 1 78 0 discriminator 3
	vmulpd	%ymm12, %ymm1, %ymm13
	.loc 1 77 0 discriminator 3
	vmovapd	%ymm10, -336(%rbp)
	.loc 1 78 0 discriminator 3
	vaddpd	-368(%rbp), %ymm13, %ymm10
	.loc 1 79 0 discriminator 3
	vmulpd	%ymm12, %ymm2, %ymm13
	.loc 1 80 0 discriminator 3
	vmulpd	%ymm12, %ymm0, %ymm12
	.loc 1 78 0 discriminator 3
	vmovapd	%ymm10, -368(%rbp)
	.loc 1 79 0 discriminator 3
	vaddpd	-400(%rbp), %ymm13, %ymm10
	.loc 1 80 0 discriminator 3
	vaddpd	-432(%rbp), %ymm12, %ymm13
	.loc 1 79 0 discriminator 3
	vmovapd	%ymm10, -400(%rbp)
	.loc 1 82 0 discriminator 3
	vmulpd	%ymm11, %ymm15, %ymm10
	.loc 1 87 0 discriminator 3
	vmulpd	%ymm14, %ymm15, %ymm15
	.loc 1 82 0 discriminator 3
	vaddpd	-464(%rbp), %ymm10, %ymm12
	.loc 1 80 0 discriminator 3
	vmovapd	%ymm13, -432(%rbp)
	.loc 1 84 0 discriminator 3
	vmulpd	%ymm11, %ymm2, %ymm10
	.loc 1 83 0 discriminator 3
	vmulpd	%ymm11, %ymm1, %ymm13
	.loc 1 89 0 discriminator 3
	vmulpd	%ymm14, %ymm2, %ymm2
	.loc 1 88 0 discriminator 3
	vmulpd	%ymm14, %ymm1, %ymm1
	.loc 1 85 0 discriminator 3
	vmulpd	%ymm11, %ymm0, %ymm11
	.loc 1 90 0 discriminator 3
	vmulpd	%ymm14, %ymm0, %ymm14
	.loc 1 83 0 discriminator 3
	vaddpd	%ymm13, %ymm3, %ymm3
	.loc 1 82 0 discriminator 3
	vmovapd	%ymm12, -464(%rbp)
	.loc 1 84 0 discriminator 3
	vaddpd	%ymm10, %ymm4, %ymm4
	addl	$1, -468(%rbp)
	.loc 1 85 0 discriminator 3
	vaddpd	%ymm11, %ymm5, %ymm5
	.loc 1 87 0 discriminator 3
	vaddpd	%ymm15, %ymm6, %ymm6
	movl	-468(%rbp), %eax
	.loc 1 88 0 discriminator 3
	vaddpd	%ymm1, %ymm7, %ymm7
	.loc 1 89 0 discriminator 3
	vaddpd	%ymm2, %ymm8, %ymm8
	.loc 1 90 0 discriminator 3
	vaddpd	%ymm14, %ymm9, %ymm9
	cmpl	-476(%rbp), %eax
	jb	.L50
	vhaddpd	%ymm9, %ymm9, %ymm12
	movq	-488(%rbp), %rax
	vhaddpd	%ymm8, %ymm8, %ymm11
	vhaddpd	%ymm6, %ymm6, %ymm6
	vperm2f128	$1, %ymm12, %ymm12, %ymm0
	vhaddpd	%ymm5, %ymm5, %ymm5
	vaddpd	%ymm0, %ymm12, %ymm13
	vperm2f128	$1, %ymm11, %ymm11, %ymm15
	vaddsd	-128(%rbp), %xmm13, %xmm10
	vperm2f128	$1, %ymm6, %ymm6, %ymm12
	vhaddpd	%ymm7, %ymm7, %ymm7
	vaddpd	%ymm15, %ymm11, %ymm1
	vaddpd	%ymm12, %ymm6, %ymm0
	vmovsd	%xmm10, -128(%rbp)
	vmovapd	-464(%rbp), %ymm6
	vperm2f128	$1, %ymm5, %ymm5, %ymm10
	vaddpd	%ymm10, %ymm5, %ymm11
	vmovapd	-432(%rbp), %ymm10
	vperm2f128	$1, %ymm7, %ymm7, %ymm8
	vaddsd	-136(%rbp), %xmm1, %xmm2
	vaddpd	%ymm8, %ymm7, %ymm14
	vaddsd	-152(%rbp), %xmm0, %xmm13
	vaddsd	-144(%rbp), %xmm14, %xmm9
	vmovsd	%xmm2, -136(%rbp)
	vaddsd	-160(%rbp), %xmm11, %xmm15
	vhaddpd	%ymm6, %ymm6, %ymm12
	vmovsd	%xmm13, -152(%rbp)
	vhaddpd	%ymm10, %ymm10, %ymm11
	vmovsd	%xmm9, -144(%rbp)
	vhaddpd	%ymm4, %ymm4, %ymm4
	vmovsd	%xmm15, -160(%rbp)
	vhaddpd	%ymm3, %ymm3, %ymm3
	vperm2f128	$1, %ymm12, %ymm12, %ymm0
	vperm2f128	$1, %ymm11, %ymm11, %ymm15
	vaddpd	%ymm0, %ymm12, %ymm13
	vperm2f128	$1, %ymm4, %ymm4, %ymm1
	vaddsd	-120(%rbp), %xmm13, %xmm5
	vaddpd	%ymm1, %ymm4, %ymm2
	vperm2f128	$1, %ymm3, %ymm3, %ymm8
	vaddpd	%ymm15, %ymm11, %ymm4
	vaddpd	%ymm8, %ymm3, %ymm14
	vmovsd	%xmm5, -120(%rbp)
	vmovapd	-336(%rbp), %ymm5
	vaddsd	-176(%rbp), %xmm14, %xmm9
	vaddsd	-56(%rbp), %xmm4, %xmm1
	vaddsd	-168(%rbp), %xmm2, %xmm7
	vmovsd	%xmm9, -176(%rbp)
	vmovapd	-400(%rbp), %ymm2
	vhaddpd	%ymm5, %ymm5, %ymm10
	vmovapd	-368(%rbp), %ymm9
	vmovsd	%xmm1, -56(%rbp)
	vmovapd	-304(%rbp), %ymm1
	vmovsd	%xmm7, -168(%rbp)
	vhaddpd	%ymm2, %ymm2, %ymm7
	vhaddpd	%ymm9, %ymm9, %ymm6
	vperm2f128	$1, %ymm10, %ymm10, %ymm11
	vhaddpd	%ymm1, %ymm1, %ymm2
	vaddpd	%ymm11, %ymm10, %ymm15
	vperm2f128	$1, %ymm7, %ymm7, %ymm3
	vaddsd	-80(%rbp), %xmm15, %xmm4
	vperm2f128	$1, %ymm6, %ymm6, %ymm12
	vaddpd	%ymm3, %ymm7, %ymm8
	vperm2f128	$1, %ymm2, %ymm2, %ymm7
	vaddpd	%ymm12, %ymm6, %ymm0
	vaddpd	%ymm7, %ymm2, %ymm3
	vmovsd	%xmm4, -80(%rbp)
	vaddsd	-72(%rbp), %xmm0, %xmm13
	vaddsd	-64(%rbp), %xmm8, %xmm14
	vaddsd	-88(%rbp), %xmm3, %xmm8
	vmovsd	%xmm13, -72(%rbp)
	vmovsd	%xmm14, -64(%rbp)
	vmovsd	%xmm8, -88(%rbp)
	vmovapd	-272(%rbp), %ymm14
	vmovapd	-240(%rbp), %ymm13
	vmovapd	-208(%rbp), %ymm4
	vhaddpd	%ymm14, %ymm14, %ymm9
	vhaddpd	%ymm13, %ymm13, %ymm5
	movl	-472(%rbp), %r14d
.LVL62:
	vhaddpd	%ymm4, %ymm4, %ymm2
	vperm2f128	$1, %ymm9, %ymm9, %ymm6
	vaddpd	%ymm6, %ymm9, %ymm12
	vperm2f128	$1, %ymm5, %ymm5, %ymm10
	vaddsd	-96(%rbp), %xmm12, %xmm0
	vaddpd	%ymm10, %ymm5, %ymm11
	vperm2f128	$1, %ymm2, %ymm2, %ymm1
	movl	%r14d, %r13d
	vaddsd	-104(%rbp), %xmm11, %xmm15
	salq	$5, %r13
	vaddpd	%ymm1, %ymm2, %ymm7
	vmovsd	%xmm0, -96(%rbp)
	addq	%r13, %r8
	vaddsd	-112(%rbp), %xmm7, %xmm3
	vmovsd	%xmm15, -104(%rbp)
	vmovsd	%xmm3, -112(%rbp)
	cmpl	%ecx, %r14d
	je	.L61
	vzeroupper
	jmp	.L49
.LVL63:
	.p2align 4,,10
	.p2align 3
.L54:
	.loc 1 59 0
	xorl	%r14d, %r14d
.LVL64:
.L49:
	movslq	%r14d, %r15
	vmovsd	-128(%rbp), %xmm8
	vmovsd	-136(%rbp), %xmm9
	leaq	(%r9,%r15,8), %r9
.LVL65:
	vmovsd	-144(%rbp), %xmm10
	vmovsd	-152(%rbp), %xmm11
	vmovsd	-160(%rbp), %xmm12
	vmovsd	-168(%rbp), %xmm13
	vmovsd	-176(%rbp), %xmm14
.L52:
.LVL66:
	.loc 1 60 0
	vmovsd	(%r9), %xmm6
.LVL67:
	.loc 1 59 0
	addl	$1, %r14d
.LVL68:
	.loc 1 70 0
	addq	$32, %r8
.LVL69:
	addq	$8, %r9
	.loc 1 65 0
	vmovsd	-32(%r8), %xmm3
	.loc 1 66 0
	vmovsd	-24(%r8), %xmm2
	.loc 1 72 0
	vmulsd	%xmm3, %xmm6, %xmm15
	.loc 1 67 0
	vmovsd	-16(%r8), %xmm1
	.loc 1 72 0
	vaddsd	-112(%rbp), %xmm15, %xmm15
	.loc 1 68 0
	vmovsd	-8(%r8), %xmm7
	.loc 1 61 0
	vmovsd	-8(%r9,%rbx), %xmm5
.LVL70:
	.loc 1 72 0
	vmovsd	%xmm15, -112(%rbp)
.LVL71:
	.loc 1 73 0
	vmulsd	%xmm2, %xmm6, %xmm15
	.loc 1 62 0
	vmovsd	-8(%r9,%r12), %xmm4
.LVL72:
	.loc 1 73 0
	vaddsd	-104(%rbp), %xmm15, %xmm15
	.loc 1 63 0
	vmovsd	-8(%r9,%rdx), %xmm0
.LVL73:
	.loc 1 73 0
	vmovsd	%xmm15, -104(%rbp)
.LVL74:
	.loc 1 74 0
	vmulsd	%xmm1, %xmm6, %xmm15
.LVL75:
	vaddsd	-96(%rbp), %xmm15, %xmm15
	.loc 1 75 0
	vmulsd	%xmm7, %xmm6, %xmm6
.LVL76:
	.loc 1 74 0
	vmovsd	%xmm15, -96(%rbp)
.LVL77:
	.loc 1 75 0
	vaddsd	-88(%rbp), %xmm6, %xmm15
.LVL78:
	.loc 1 77 0
	vmulsd	%xmm3, %xmm5, %xmm6
	.loc 1 75 0
	vmovsd	%xmm15, -88(%rbp)
.LVL79:
	.loc 1 77 0
	vaddsd	-80(%rbp), %xmm6, %xmm15
.LVL80:
	.loc 1 78 0
	vmulsd	%xmm2, %xmm5, %xmm6
	.loc 1 77 0
	vmovsd	%xmm15, -80(%rbp)
.LVL81:
	.loc 1 78 0
	vaddsd	-72(%rbp), %xmm6, %xmm15
.LVL82:
	.loc 1 79 0
	vmulsd	%xmm1, %xmm5, %xmm6
	.loc 1 80 0
	vmulsd	%xmm7, %xmm5, %xmm5
.LVL83:
	.loc 1 78 0
	vmovsd	%xmm15, -72(%rbp)
.LVL84:
	.loc 1 79 0
	vaddsd	-64(%rbp), %xmm6, %xmm15
.LVL85:
	.loc 1 80 0
	vaddsd	-56(%rbp), %xmm5, %xmm6
	.loc 1 79 0
	vmovsd	%xmm15, -64(%rbp)
.LVL86:
	.loc 1 82 0
	vmulsd	%xmm3, %xmm4, %xmm15
.LVL87:
	vaddsd	-120(%rbp), %xmm15, %xmm5
	.loc 1 87 0
	vmulsd	%xmm3, %xmm0, %xmm3
.LVL88:
	.loc 1 80 0
	vmovsd	%xmm6, -56(%rbp)
.LVL89:
	.loc 1 84 0
	vmulsd	%xmm1, %xmm4, %xmm15
	.loc 1 83 0
	vmulsd	%xmm2, %xmm4, %xmm6
.LVL90:
	.loc 1 89 0
	vmulsd	%xmm1, %xmm0, %xmm1
.LVL91:
	.loc 1 82 0
	vmovsd	%xmm5, -120(%rbp)
.LVL92:
	.loc 1 88 0
	vmulsd	%xmm2, %xmm0, %xmm2
.LVL93:
	.loc 1 85 0
	vmulsd	%xmm7, %xmm4, %xmm4
.LVL94:
	.loc 1 87 0
	vaddsd	%xmm3, %xmm11, %xmm11
.LVL95:
	.loc 1 90 0
	vmulsd	%xmm7, %xmm0, %xmm0
.LVL96:
	.loc 1 84 0
	vaddsd	%xmm15, %xmm13, %xmm13
.LVL97:
	.loc 1 83 0
	vaddsd	%xmm6, %xmm14, %xmm14
.LVL98:
	.loc 1 89 0
	vaddsd	%xmm1, %xmm9, %xmm9
.LVL99:
	.loc 1 88 0
	vaddsd	%xmm2, %xmm10, %xmm10
.LVL100:
	.loc 1 85 0
	vaddsd	%xmm4, %xmm12, %xmm12
.LVL101:
	.loc 1 90 0
	vaddsd	%xmm0, %xmm8, %xmm8
.LVL102:
	.loc 1 59 0
	cmpl	%r14d, %ecx
	jg	.L52
	vmovsd	%xmm8, -128(%rbp)
	vmovsd	%xmm9, -136(%rbp)
	vmovsd	%xmm10, -144(%rbp)
	vmovsd	%xmm11, -152(%rbp)
	vmovsd	%xmm12, -160(%rbp)
	vmovsd	%xmm13, -168(%rbp)
	vmovsd	%xmm14, -176(%rbp)
.LVL103:
.L48:
.LBE198:
	.loc 1 93 0
	vmovsd	-112(%rbp), %xmm8
	.loc 1 94 0
	vmovsd	-104(%rbp), %xmm9
	.loc 1 95 0
	vmovsd	-96(%rbp), %xmm10
	.loc 1 93 0
	vmovsd	%xmm8, (%r11)
	.loc 1 96 0
	vmovsd	-88(%rbp), %xmm11
	.loc 1 94 0
	vmovsd	%xmm9, 8(%r11)
	.loc 1 98 0
	vmovsd	-80(%rbp), %xmm12
	.loc 1 95 0
	vmovsd	%xmm10, 16(%r11)
	.loc 1 99 0
	vmovsd	-72(%rbp), %xmm13
	.loc 1 96 0
	vmovsd	%xmm11, 24(%r11)
.LVL104:
	.loc 1 100 0
	vmovsd	-64(%rbp), %xmm14
	.loc 1 98 0
	vmovsd	%xmm12, (%r10)
	.loc 1 101 0
	vmovsd	-56(%rbp), %xmm7
	.loc 1 99 0
	vmovsd	%xmm13, 8(%r10)
	.loc 1 103 0
	vmovsd	-120(%rbp), %xmm5
	.loc 1 100 0
	vmovsd	%xmm14, 16(%r10)
	.loc 1 104 0
	vmovsd	-176(%rbp), %xmm6
	.loc 1 101 0
	vmovsd	%xmm7, 24(%r10)
.LVL105:
	.loc 1 105 0
	vmovsd	-168(%rbp), %xmm15
	.loc 1 103 0
	vmovsd	%xmm5, (%rsi)
	.loc 1 106 0
	vmovsd	-160(%rbp), %xmm4
	.loc 1 104 0
	vmovsd	%xmm6, 8(%rsi)
	.loc 1 108 0
	vmovsd	-152(%rbp), %xmm3
	.loc 1 105 0
	vmovsd	%xmm15, 16(%rsi)
	.loc 1 109 0
	vmovsd	-144(%rbp), %xmm2
	.loc 1 106 0
	vmovsd	%xmm4, 24(%rsi)
.LVL106:
	.loc 1 110 0
	vmovsd	-136(%rbp), %xmm1
	.loc 1 108 0
	vmovsd	%xmm3, (%rax)
	.loc 1 111 0
	vmovsd	-128(%rbp), %xmm0
	.loc 1 109 0
	vmovsd	%xmm2, 8(%rax)
	.loc 1 110 0
	vmovsd	%xmm1, 16(%rax)
	.loc 1 111 0
	vmovsd	%xmm0, 24(%rax)
	.loc 1 163 0
	addq	$448, %rsp
	popq	%rbx
.LVL107:
	popq	%rcx
	.cfi_remember_state
	.cfi_def_cfa 10, 0
.LVL108:
	popq	%r12
.LVL109:
	popq	%r13
	popq	%r14
	popq	%r15
	popq	%rbp
	leaq	-8(%rcx), %rsp
	.cfi_def_cfa 7, 8
	ret
.LVL110:
	.p2align 4,,10
	.p2align 3
.L61:
	.cfi_restore_state
	vzeroupper
	jmp	.L48
	.cfi_endproc
.LFE2250:
	.size	do_4x4_block, .-do_4x4_block
	.section	.text.unlikely
.LCOLDE1:
	.text
.LHOTE1:
	.section	.text.unlikely
.LCOLDB2:
	.text
.LHOTB2:
	.p2align 4,,15
	.globl	do_bfringex4_block
	.type	do_bfringex4_block, @function
do_bfringex4_block:
.LFB2251:
	.loc 1 165 0
	.cfi_startproc
.LVL111:
	leaq	8(%rsp), %r10
	.cfi_def_cfa 10, 0
	andq	$-32, %rsp
	pushq	-8(%r10)
	pushq	%rbp
	.cfi_escape 0x10,0x6,0x2,0x76,0
	movq	%rsp, %rbp
	pushq	%r15
	pushq	%r14
	pushq	%r13
	pushq	%r12
	pushq	%r10
	.cfi_escape 0xf,0x3,0x76,0x58,0x6
	.cfi_escape 0x10,0xf,0x2,0x76,0x78
	.cfi_escape 0x10,0xe,0x2,0x76,0x70
	.cfi_escape 0x10,0xd,0x2,0x76,0x68
	.cfi_escape 0x10,0xc,0x2,0x76,0x60
	pushq	%rbx
	subq	$96, %rsp
	.cfi_escape 0x10,0x3,0x2,0x76,0x50
	call	mcount
	.loc 1 165 0
	movl	8(%r10), %eax
	movq	(%r10), %r11
	.loc 1 166 0
	cmpl	$3, %eax
	je	.L117
	.loc 1 241 0
	cmpl	$2, %eax
	je	.L118
	.loc 1 289 0
	cmpl	$1, %eax
	je	.L119
.LVL112:
.L116:
	.loc 1 328 0
	addq	$96, %rsp
	popq	%rbx
	popq	%r8
	.cfi_remember_state
	.cfi_def_cfa 10, 0
	popq	%r12
	popq	%r13
	popq	%r14
	popq	%r15
	popq	%rbp
	leaq	-8(%r8), %rsp
	.cfi_def_cfa 7, 8
	ret
.LVL113:
	.p2align 4,,10
	.p2align 3
.L119:
	.cfi_restore_state
.LBB199:
	.loc 1 294 0
	movslq	%edi, %rdi
	.loc 1 307 0
	movslq	%edx, %rdx
	.loc 1 301 0
	vmovsd	(%r11), %xmm5
	.loc 1 294 0
	salq	$3, %rdi
.LVL114:
	leaq	(%r11,%rdi), %r15
.LVL115:
	.loc 1 296 0
	leaq	(%r15,%rdi), %rbx
.LVL116:
	.loc 1 302 0
	vmovsd	(%r15), %xmm4
	.loc 1 298 0
	leaq	(%rbx,%rdi), %rsi
.LVL117:
	.loc 1 303 0
	vmovsd	(%rbx), %xmm3
	.loc 1 298 0
	movq	%rsi, -64(%rbp)
.LVL118:
	.loc 1 304 0
	vmovsd	(%rsi), %xmm6
.LVL119:
	.loc 1 307 0
	leaq	0(,%rdx,8), %rsi
.LVL120:
.LBB200:
	.loc 1 312 0
	testl	%ecx, %ecx
	jle	.L70
	movq	%r9, %r10
	andl	$31, %r10d
	shrq	$3, %r10
	negq	%r10
	andl	$3, %r10d
	cmpl	%ecx, %r10d
	cmova	%ecx, %r10d
	cmpl	$5, %ecx
	jg	.L120
	movl	%ecx, %r10d
.L81:
	.loc 1 319 0
	leaq	(%r9,%rsi), %r12
	.loc 1 313 0
	vmovsd	(%r8), %xmm0
.LVL121:
	.loc 1 316 0
	vmulsd	(%r9), %xmm0, %xmm1
	.loc 1 317 0
	vmulsd	(%r9,%rdx,8), %xmm0, %xmm2
	.loc 1 318 0
	vmulsd	(%r9,%rsi,2), %xmm0, %xmm7
	.loc 1 319 0
	vmulsd	(%r12,%rsi,2), %xmm0, %xmm8
	.loc 1 314 0
	leaq	(%r8,%rdi), %rax
.LVL122:
	.loc 1 316 0
	vaddsd	%xmm1, %xmm5, %xmm5
.LVL123:
	.loc 1 317 0
	vaddsd	%xmm2, %xmm4, %xmm4
.LVL124:
	.loc 1 318 0
	vaddsd	%xmm7, %xmm3, %xmm3
.LVL125:
	.loc 1 319 0
	vaddsd	%xmm8, %xmm6, %xmm6
.LVL126:
	cmpl	$1, %r10d
	je	.L83
	leaq	8(%rsi,%rsi), %r13
	.loc 1 313 0
	vmovsd	(%rax), %xmm9
.LVL127:
	.loc 1 314 0
	addq	%rdi, %rax
.LVL128:
	.loc 1 316 0
	vmulsd	8(%r9), %xmm9, %xmm10
	.loc 1 317 0
	vmulsd	8(%r9,%rsi), %xmm9, %xmm11
	.loc 1 318 0
	vmulsd	(%r9,%r13), %xmm9, %xmm12
	.loc 1 319 0
	vmulsd	(%r12,%r13), %xmm9, %xmm13
	.loc 1 316 0
	vaddsd	%xmm10, %xmm5, %xmm5
.LVL129:
	.loc 1 317 0
	vaddsd	%xmm11, %xmm4, %xmm4
.LVL130:
	.loc 1 318 0
	vaddsd	%xmm12, %xmm3, %xmm3
.LVL131:
	.loc 1 319 0
	vaddsd	%xmm13, %xmm6, %xmm6
.LVL132:
	cmpl	$2, %r10d
	je	.L84
	leaq	16(%rsi,%rsi), %r14
	.loc 1 313 0
	vmovsd	(%rax), %xmm14
.LVL133:
	.loc 1 314 0
	addq	%rdi, %rax
.LVL134:
	.loc 1 316 0
	vmulsd	16(%r9), %xmm14, %xmm15
	.loc 1 317 0
	vmulsd	16(%r9,%rsi), %xmm14, %xmm0
	.loc 1 318 0
	vmulsd	(%r9,%r14), %xmm14, %xmm1
	.loc 1 319 0
	vmulsd	(%r12,%r14), %xmm14, %xmm2
	.loc 1 316 0
	vaddsd	%xmm15, %xmm5, %xmm5
.LVL135:
	.loc 1 317 0
	vaddsd	%xmm0, %xmm4, %xmm4
.LVL136:
	.loc 1 318 0
	vaddsd	%xmm1, %xmm3, %xmm3
.LVL137:
	.loc 1 319 0
	vaddsd	%xmm2, %xmm6, %xmm6
.LVL138:
	cmpl	$3, %r10d
	je	.L85
	leaq	24(%rsi,%rsi), %r13
	.loc 1 313 0
	vmovsd	(%rax), %xmm7
.LVL139:
	.loc 1 314 0
	addq	%rdi, %rax
.LVL140:
	.loc 1 316 0
	vmulsd	24(%r9), %xmm7, %xmm8
	.loc 1 317 0
	vmulsd	24(%r9,%rsi), %xmm7, %xmm9
	.loc 1 318 0
	vmulsd	(%r9,%r13), %xmm7, %xmm10
	.loc 1 319 0
	vmulsd	(%r12,%r13), %xmm7, %xmm11
	.loc 1 316 0
	vaddsd	%xmm8, %xmm5, %xmm5
.LVL141:
	.loc 1 317 0
	vaddsd	%xmm9, %xmm4, %xmm4
.LVL142:
	.loc 1 318 0
	vaddsd	%xmm10, %xmm3, %xmm3
.LVL143:
	.loc 1 319 0
	vaddsd	%xmm11, %xmm6, %xmm6
.LVL144:
	cmpl	$5, %r10d
	jne	.L86
	leaq	32(%rsi,%rsi), %r12
	.loc 1 313 0
	vmovsd	(%rax), %xmm12
.LVL145:
	.loc 1 312 0
	movl	$5, -52(%rbp)
	.loc 1 314 0
	addq	%rdi, %rax
.LVL146:
	.loc 1 318 0
	vmulsd	(%r9,%r12), %xmm12, %xmm15
	.loc 1 319 0
	addq	%r9, %r12
	.loc 1 316 0
	vmulsd	32(%r9), %xmm12, %xmm13
	.loc 1 317 0
	vmulsd	32(%r9,%rsi), %xmm12, %xmm14
	.loc 1 319 0
	vmulsd	(%r12,%rsi), %xmm12, %xmm0
	.loc 1 318 0
	vaddsd	%xmm15, %xmm3, %xmm3
.LVL147:
	.loc 1 316 0
	vaddsd	%xmm13, %xmm5, %xmm5
.LVL148:
	.loc 1 317 0
	vaddsd	%xmm14, %xmm4, %xmm4
.LVL149:
	.loc 1 319 0
	vaddsd	%xmm0, %xmm6, %xmm6
.LVL150:
.L73:
	cmpl	%ecx, %r10d
	je	.L70
.LVL151:
.L72:
	movl	%ecx, %r13d
	movl	%r10d, %r14d
	subl	%r10d, %r13d
	leal	-4(%r13), %r12d
	movl	%r13d, -100(%rbp)
	shrl	$2, %r12d
	leal	1(%r12), %r13d
	movl	%r13d, -56(%rbp)
	sall	$2, %r13d
	movl	%r13d, -104(%rbp)
	leal	-1(%rcx), %r13d
	subl	%r10d, %r13d
	cmpl	$2, %r13d
	jbe	.L75
	leaq	0(,%rdi,4), %r10
	movq	%r14, %r13
	andl	$1, %r12d
	imulq	%rdi, %r13
	movq	%r10, -80(%rbp)
	leaq	(%rdx,%r14), %r10
	movl	%r12d, -132(%rbp)
.LVL152:
	leaq	(%r9,%r14,8), %r14
	movq	%r14, -88(%rbp)
	movq	%r13, -72(%rbp)
	leaq	(%rdx,%r10), %r13
	leaq	(%r9,%r10,8), %r10
	addq	%r13, %rdx
.LVL153:
	movq	%r10, -96(%rbp)
	movq	-72(%rbp), %r10
	leaq	(%r9,%r13,8), %r14
	.loc 1 316 0
	movq	-88(%rbp), %r13
	leaq	(%r9,%rdx,8), %rdx
	movl	$1, -72(%rbp)
	.loc 1 317 0
	movq	-96(%rbp), %r12
	.loc 1 318 0
	vmovupd	(%r14), %xmm12
	vinsertf128	$0x1, 16(%r14), %ymm12, %ymm13
	addq	%rdi, %r10
	.loc 1 319 0
	vmovupd	(%rdx), %xmm14
	vinsertf128	$0x1, 16(%rdx), %ymm14, %ymm15
	addq	%r8, %r10
	movq	%rdi, %r8
	addq	$32, %r13
	negq	%r8
	.loc 1 313 0
	vmovsd	(%r10,%rdi), %xmm1
	addq	$32, %r12
	vmovsd	(%r10,%r8), %xmm2
	movq	%r8, -128(%rbp)
	leaq	32(%rdx), %r8
	vmovhpd	(%r10,%rdi,2), %xmm1, %xmm7
	.loc 1 317 0
	vmovupd	-32(%r12), %xmm10
	movq	%r8, -120(%rbp)
	vinsertf128	$0x1, -16(%r12), %ymm10, %ymm11
	.loc 1 313 0
	vmovhpd	(%r10), %xmm2, %xmm8
	movl	-56(%rbp), %r8d
	vinsertf128	$0x1, %xmm7, %ymm8, %ymm9
	.loc 1 316 0
	vmulpd	-32(%r13), %ymm9, %ymm8
	.loc 1 317 0
	vmulpd	%ymm9, %ymm11, %ymm1
	movq	%r13, -112(%rbp)
	.loc 1 318 0
	vmulpd	%ymm9, %ymm13, %ymm2
	.loc 1 319 0
	vmulpd	%ymm9, %ymm15, %ymm0
	leaq	32(%r14), %r13
	addq	-80(%rbp), %r10
	cmpl	%r8d, -72(%rbp)
	jnb	.L108
	movl	-132(%rbp), %r8d
	testl	%r8d, %r8d
	je	.L113
	.loc 1 313 0
	movq	-128(%rbp), %r8
	movl	$2, -72(%rbp)
	vmovsd	(%r10,%rdi), %xmm7
	.loc 1 317 0
	vmovupd	(%r12), %xmm14
	vinsertf128	$0x1, 16(%r12), %ymm14, %ymm15
	.loc 1 319 0
	movq	-120(%rbp), %r12
	.loc 1 313 0
	vmovhpd	(%r10,%rdi,2), %xmm7, %xmm10
	vmovsd	(%r10,%r8), %xmm9
	.loc 1 316 0
	movq	-112(%rbp), %r8
	.loc 1 313 0
	vmovhpd	(%r10), %xmm9, %xmm11
	addq	-80(%rbp), %r10
	vinsertf128	$0x1, %xmm10, %ymm11, %ymm12
	.loc 1 318 0
	vmovupd	0(%r13), %xmm10
	.loc 1 317 0
	vmulpd	%ymm12, %ymm15, %ymm7
	.loc 1 318 0
	vinsertf128	$0x1, 16(%r13), %ymm10, %ymm9
	leaq	64(%r14), %r13
	vmulpd	%ymm12, %ymm9, %ymm11
	.loc 1 317 0
	vaddpd	%ymm7, %ymm1, %ymm1
	.loc 1 316 0
	vmulpd	(%r8), %ymm12, %ymm13
	movq	-88(%rbp), %r8
	vaddpd	%ymm13, %ymm8, %ymm8
	leaq	64(%rdx), %r14
	.loc 1 319 0
	vmovupd	(%r12), %xmm13
	vinsertf128	$0x1, 16(%r12), %ymm13, %ymm14
	.loc 1 318 0
	vaddpd	%ymm11, %ymm2, %ymm2
	.loc 1 319 0
	vmulpd	%ymm12, %ymm14, %ymm12
	movq	-96(%rbp), %r12
	vaddpd	%ymm12, %ymm0, %ymm0
	movq	%r14, -120(%rbp)
	movl	-56(%rbp), %edx
	addq	$64, %r8
	movq	%r8, -112(%rbp)
	addq	$64, %r12
	cmpl	%edx, -72(%rbp)
	jb	.L114
.L108:
	movl	-104(%rbp), %r10d
	vhaddpd	%ymm0, %ymm0, %ymm12
	addl	%r10d, -52(%rbp)
	vhaddpd	%ymm2, %ymm2, %ymm2
	vhaddpd	%ymm1, %ymm1, %ymm1
	vhaddpd	%ymm8, %ymm8, %ymm8
	vperm2f128	$1, %ymm12, %ymm12, %ymm11
	movl	%r10d, %r12d
	vaddpd	%ymm11, %ymm12, %ymm0
	vperm2f128	$1, %ymm2, %ymm2, %ymm7
	imulq	%rdi, %r12
	vaddpd	%ymm7, %ymm2, %ymm10
	vperm2f128	$1, %ymm1, %ymm1, %ymm13
	vperm2f128	$1, %ymm8, %ymm8, %ymm9
	vaddpd	%ymm13, %ymm1, %ymm14
	vaddpd	%ymm9, %ymm8, %ymm12
	vmovapd	%xmm0, %xmm15
	vaddsd	%xmm15, %xmm6, %xmm6
	vaddsd	%xmm10, %xmm3, %xmm3
	vaddsd	%xmm14, %xmm4, %xmm4
	addq	%r12, %rax
	vaddsd	%xmm12, %xmm5, %xmm5
	cmpl	%r10d, -100(%rbp)
	je	.L115
	vzeroupper
.L75:
.LVL154:
	.loc 1 316 0
	movl	-52(%rbp), %r14d
	.loc 1 319 0
	leaq	(%r9,%rsi), %r8
	.loc 1 313 0
	vmovsd	(%rax), %xmm11
.LVL155:
	.loc 1 314 0
	addq	%rdi, %rax
.LVL156:
	.loc 1 316 0
	movslq	%r14d, %rdx
	.loc 1 312 0
	movl	%r14d, %r12d
	leaq	(%rsi,%rdx,8), %r10
	addl	$1, %r12d
	.loc 1 317 0
	vmulsd	(%r9,%r10), %xmm11, %xmm15
	addq	%rsi, %r10
	.loc 1 316 0
	vmulsd	(%r9,%rdx,8), %xmm11, %xmm0
	.loc 1 318 0
	vmulsd	(%r9,%r10), %xmm11, %xmm2
	.loc 1 319 0
	vmulsd	(%r8,%r10), %xmm11, %xmm7
	.loc 1 317 0
	vaddsd	%xmm15, %xmm4, %xmm4
.LVL157:
	.loc 1 316 0
	vaddsd	%xmm0, %xmm5, %xmm5
.LVL158:
	.loc 1 318 0
	vaddsd	%xmm2, %xmm3, %xmm3
.LVL159:
	.loc 1 319 0
	vaddsd	%xmm7, %xmm6, %xmm6
.LVL160:
	.loc 1 312 0
	cmpl	%r12d, %ecx
	jle	.L70
	.loc 1 313 0
	vmovsd	(%rax), %xmm10
.LVL161:
	.loc 1 314 0
	addq	%rax, %rdi
.LVL162:
	.loc 1 316 0
	movslq	%r12d, %rax
.LVL163:
	.loc 1 312 0
	addl	$2, %r14d
	leaq	(%rsi,%rax,8), %r13
	.loc 1 317 0
	vmulsd	(%r9,%r13), %xmm10, %xmm13
	addq	%rsi, %r13
	.loc 1 316 0
	vmulsd	(%r9,%rax,8), %xmm10, %xmm1
	.loc 1 318 0
	vmulsd	(%r9,%r13), %xmm10, %xmm14
	.loc 1 319 0
	vmulsd	(%r8,%r13), %xmm10, %xmm8
	.loc 1 317 0
	vaddsd	%xmm13, %xmm4, %xmm4
.LVL164:
	.loc 1 316 0
	vaddsd	%xmm1, %xmm5, %xmm5
.LVL165:
	.loc 1 318 0
	vaddsd	%xmm14, %xmm3, %xmm3
.LVL166:
	.loc 1 319 0
	vaddsd	%xmm8, %xmm6, %xmm6
.LVL167:
	.loc 1 312 0
	cmpl	%r14d, %ecx
	jle	.L70
	.loc 1 316 0
	movslq	%r14d, %rcx
.LVL168:
	.loc 1 313 0
	vmovsd	(%rdi), %xmm9
.LVL169:
	leaq	(%rsi,%rcx,8), %rdi
	.loc 1 316 0
	vmulsd	(%r9,%rcx,8), %xmm9, %xmm12
	addq	%rdi, %rsi
.LVL170:
	.loc 1 317 0
	vmulsd	(%r9,%rdi), %xmm9, %xmm11
	.loc 1 318 0
	vmulsd	(%r9,%rsi), %xmm9, %xmm0
	.loc 1 319 0
	vmulsd	(%r8,%rsi), %xmm9, %xmm15
	.loc 1 316 0
	vaddsd	%xmm12, %xmm5, %xmm5
.LVL171:
	.loc 1 317 0
	vaddsd	%xmm11, %xmm4, %xmm4
.LVL172:
	.loc 1 318 0
	vaddsd	%xmm0, %xmm3, %xmm3
.LVL173:
	.loc 1 319 0
	vaddsd	%xmm15, %xmm6, %xmm6
.LVL174:
.L70:
.LBE200:
	.loc 1 325 0
	movq	-64(%rbp), %r9
.LVL175:
	.loc 1 322 0
	vmovsd	%xmm5, (%r11)
	.loc 1 323 0
	vmovsd	%xmm4, (%r15)
	.loc 1 324 0
	vmovsd	%xmm3, (%rbx)
	.loc 1 325 0
	vmovsd	%xmm6, (%r9)
	jmp	.L116
.LVL176:
	.p2align 4,,10
	.p2align 3
.L120:
	testl	%r10d, %r10d
	jne	.L81
.LBB201:
	.loc 1 312 0
	movq	%r8, %rax
	movl	$0, -52(%rbp)
	jmp	.L72
.LVL177:
	.p2align 4,,10
	.p2align 3
.L117:
.LBE201:
.LBE199:
.LBB203:
	.loc 1 173 0
	movslq	%edi, %rax
	.loc 1 196 0
	movslq	%edx, %rsi
.LVL178:
.LBB204:
.LBB205:
	.file 2 "/usr/lib/gcc/x86_64-pc-linux-gnu/4.9.3/include/emmintrin.h"
	.loc 2 122 0
	vmovupd	(%r11), %xmm6
.LBE205:
.LBE204:
	.loc 1 173 0
	leaq	0(,%rax,8), %r15
	.loc 1 196 0
	salq	$3, %rsi
	.loc 1 190 0
	vmovsd	16(%r11), %xmm11
	.loc 1 173 0
	leaq	(%r11,%r15), %rbx
.LVL179:
	.loc 1 175 0
	leaq	(%rbx,%r15), %r12
.LVL180:
.LBB206:
.LBB207:
	.loc 2 122 0
	vmovupd	(%rbx), %xmm8
.LBE207:
.LBE206:
	.loc 1 177 0
	leaq	(%r12,%r15), %r13
.LVL181:
.LBB208:
.LBB209:
	.loc 2 122 0
	vmovupd	(%r12), %xmm10
.LVL182:
.LBE209:
.LBE208:
	.loc 1 196 0
	leaq	(%r9,%rsi), %rdi
.LVL183:
.LBB210:
.LBB211:
	.loc 2 122 0
	vmovupd	0(%r13), %xmm2
.LVL184:
.LBE211:
.LBE210:
	.loc 1 191 0
	vmovsd	16(%rbx), %xmm12
.LVL185:
	.loc 1 198 0
	leaq	(%rdi,%rsi), %r10
	.loc 1 192 0
	vmovsd	16(%r12), %xmm13
.LVL186:
	.loc 1 193 0
	vmovsd	16(%r13), %xmm4
.LVL187:
.LBB212:
	.loc 1 205 0
	testl	%ecx, %ecx
	jle	.L64
	.loc 1 211 0
	vmovsd	(%rdi), %xmm3
	leal	-1(%rcx), %r14d
	addq	%r10, %rsi
.LVL188:
	movl	$1, %eax
.LVL189:
	.loc 1 207 0
	vmovsd	16(%r8), %xmm9
	andl	$1, %r14d
.LVL190:
	.loc 1 210 0
	vmovsd	(%r9), %xmm7
	.loc 1 212 0
	vmovsd	(%r10), %xmm1
	.loc 1 216 0
	vmulsd	%xmm9, %xmm3, %xmm15
.LBB213:
.LBB214:
	.loc 2 66 0
	vmovddup	%xmm3, %xmm3
.LBE214:
.LBE213:
	.loc 1 215 0
	vmulsd	%xmm9, %xmm7, %xmm14
	.loc 1 213 0
	vmovsd	(%rsi), %xmm5
.LBB218:
.LBB219:
	.loc 2 66 0
	vmovddup	%xmm7, %xmm7
.LBE219:
.LBE218:
.LBB223:
.LBB224:
	.loc 2 122 0
	vmovupd	(%r8), %xmm0
.LVL191:
.LBE224:
.LBE223:
	.loc 1 208 0
	addq	%r15, %r8
.LVL192:
	.loc 1 216 0
	vaddsd	%xmm15, %xmm12, %xmm12
.LVL193:
.LBB228:
.LBB229:
	.loc 2 263 0
	vmulpd	%xmm7, %xmm0, %xmm15
.LBE229:
.LBE228:
	.loc 1 215 0
	vaddsd	%xmm14, %xmm11, %xmm11
.LVL194:
	.loc 1 217 0
	vmulsd	%xmm9, %xmm1, %xmm14
.LVL195:
.LBB233:
.LBB234:
	.loc 2 66 0
	vmovddup	%xmm1, %xmm1
.LBE234:
.LBE233:
	.loc 1 218 0
	vmulsd	%xmm9, %xmm5, %xmm9
.LVL196:
.LBB238:
.LBB239:
	.loc 2 66 0
	vmovddup	%xmm5, %xmm5
.LBE239:
.LBE238:
.LBB243:
.LBB244:
	.loc 2 239 0
	vaddpd	%xmm15, %xmm6, %xmm6
.LVL197:
.LBE244:
.LBE243:
	.loc 1 217 0
	vaddsd	%xmm14, %xmm13, %xmm13
.LVL198:
.LBB248:
.LBB249:
	.loc 2 263 0
	vmulpd	%xmm3, %xmm0, %xmm14
.LBE249:
.LBE248:
	.loc 1 218 0
	vaddsd	%xmm9, %xmm4, %xmm4
.LVL199:
.LBB253:
.LBB254:
	.loc 2 263 0
	vmulpd	%xmm1, %xmm0, %xmm9
.LBE254:
.LBE253:
.LBB258:
.LBB259:
	vmulpd	%xmm5, %xmm0, %xmm0
.LVL200:
.LBE259:
.LBE258:
.LBB263:
.LBB264:
	.loc 2 239 0
	vaddpd	%xmm14, %xmm8, %xmm8
.LVL201:
.LBE264:
.LBE263:
.LBB268:
.LBB269:
	vaddpd	%xmm9, %xmm10, %xmm10
.LVL202:
.LBE269:
.LBE268:
.LBB273:
.LBB274:
	vaddpd	%xmm0, %xmm2, %xmm2
.LVL203:
.LBE274:
.LBE273:
	.loc 1 205 0
	cmpl	$1, %ecx
	jle	.L64
	testl	%r14d, %r14d
	je	.L65
.LVL204:
	.loc 1 207 0
	vmovsd	16(%r8), %xmm9
	movl	$2, %eax
	.loc 1 210 0
	vmovsd	8(%r9), %xmm7
	.loc 1 211 0
	vmovsd	8(%rdi), %xmm3
	.loc 1 215 0
	vmulsd	%xmm9, %xmm7, %xmm14
.LVL205:
	.loc 1 212 0
	vmovsd	8(%r10), %xmm1
.LBB278:
.LBB220:
	.loc 2 66 0
	vmovddup	%xmm7, %xmm7
.LBE220:
.LBE278:
	.loc 1 213 0
	vmovsd	8(%rsi), %xmm5
	.loc 1 216 0
	vmulsd	%xmm9, %xmm3, %xmm0
.LBB279:
.LBB215:
	.loc 2 66 0
	vmovddup	%xmm3, %xmm3
.LBE215:
.LBE279:
.LBB280:
.LBB225:
	.loc 2 122 0
	vmovupd	(%r8), %xmm15
.LVL206:
.LBE225:
.LBE280:
	.loc 1 208 0
	addq	%r15, %r8
.LVL207:
	.loc 1 215 0
	vaddsd	%xmm14, %xmm11, %xmm11
.LVL208:
	.loc 1 217 0
	vmulsd	%xmm9, %xmm1, %xmm14
.LBB281:
.LBB235:
	.loc 2 66 0
	vmovddup	%xmm1, %xmm1
.LBE235:
.LBE281:
	.loc 1 218 0
	vmulsd	%xmm9, %xmm5, %xmm9
	.loc 1 216 0
	vaddsd	%xmm0, %xmm12, %xmm12
.LVL209:
.LBB282:
.LBB240:
	.loc 2 66 0
	vmovddup	%xmm5, %xmm5
.LBE240:
.LBE282:
.LBB283:
.LBB230:
	.loc 2 263 0
	vmulpd	%xmm7, %xmm15, %xmm0
.LBE230:
.LBE283:
	.loc 1 217 0
	vaddsd	%xmm14, %xmm13, %xmm13
.LVL210:
.LBB284:
.LBB250:
	.loc 2 263 0
	vmulpd	%xmm3, %xmm15, %xmm14
.LBE250:
.LBE284:
	.loc 1 218 0
	vaddsd	%xmm9, %xmm4, %xmm4
.LVL211:
.LBB285:
.LBB255:
	.loc 2 263 0
	vmulpd	%xmm1, %xmm15, %xmm9
.LBE255:
.LBE285:
.LBB286:
.LBB260:
	vmulpd	%xmm5, %xmm15, %xmm15
.LBE260:
.LBE286:
.LBB287:
.LBB245:
	.loc 2 239 0
	vaddpd	%xmm0, %xmm6, %xmm6
.LVL212:
.LBE245:
.LBE287:
.LBB288:
.LBB265:
	vaddpd	%xmm14, %xmm8, %xmm8
.LVL213:
.LBE265:
.LBE288:
.LBB289:
.LBB270:
	vaddpd	%xmm9, %xmm10, %xmm10
.LVL214:
.LBE270:
.LBE289:
.LBB290:
.LBB275:
	vaddpd	%xmm15, %xmm2, %xmm2
.LVL215:
.LBE275:
.LBE290:
	.loc 1 205 0
	cmpl	$2, %ecx
	jle	.L64
.LVL216:
	.p2align 4,,10
	.p2align 3
.L65:
	.loc 1 207 0
	vmovsd	16(%r8), %xmm3
	leaq	1(%rax), %r14
	.loc 1 210 0
	vmovsd	(%r9,%rax,8), %xmm7
	.loc 1 211 0
	vmovsd	(%rdi,%rax,8), %xmm5
	.loc 1 215 0
	vmulsd	%xmm3, %xmm7, %xmm14
	.loc 1 212 0
	vmovsd	(%r10,%rax,8), %xmm1
.LBB291:
.LBB221:
	.loc 2 66 0
	vmovddup	%xmm7, %xmm7
.LBE221:
.LBE291:
	.loc 1 213 0
	vmovsd	(%rsi,%rax,8), %xmm9
	.loc 1 216 0
	vmulsd	%xmm3, %xmm5, %xmm15
.LBB292:
.LBB216:
	.loc 2 66 0
	vmovddup	%xmm5, %xmm5
	addq	$2, %rax
.LBE216:
.LBE292:
.LBB293:
.LBB226:
	.loc 2 122 0
	vmovupd	(%r8), %xmm0
.LBE226:
.LBE293:
	.loc 1 208 0
	addq	%r15, %r8
	.loc 1 215 0
	vaddsd	%xmm14, %xmm11, %xmm11
.LVL217:
	.loc 1 217 0
	vmulsd	%xmm3, %xmm1, %xmm14
.LBB294:
.LBB236:
	.loc 2 66 0
	vmovddup	%xmm1, %xmm1
.LBE236:
.LBE294:
	.loc 1 218 0
	vmulsd	%xmm3, %xmm9, %xmm3
	.loc 1 216 0
	vaddsd	%xmm15, %xmm12, %xmm12
.LBB295:
.LBB241:
	.loc 2 66 0
	vmovddup	%xmm9, %xmm9
.LBE241:
.LBE295:
.LBB296:
.LBB231:
	.loc 2 263 0
	vmulpd	%xmm7, %xmm0, %xmm15
.LBE231:
.LBE296:
	.loc 1 211 0
	vmovsd	(%rdi,%r14,8), %xmm7
	.loc 1 217 0
	vaddsd	%xmm14, %xmm13, %xmm13
.LVL218:
.LBB297:
.LBB251:
	.loc 2 263 0
	vmulpd	%xmm5, %xmm0, %xmm14
.LBE251:
.LBE297:
	.loc 1 210 0
	vmovsd	(%r9,%r14,8), %xmm5
	.loc 1 218 0
	vaddsd	%xmm3, %xmm4, %xmm4
.LVL219:
.LBB298:
.LBB256:
	.loc 2 263 0
	vmulpd	%xmm1, %xmm0, %xmm3
.LBE256:
.LBE298:
	.loc 1 213 0
	vmovsd	(%rsi,%r14,8), %xmm1
.LBB299:
.LBB261:
	.loc 2 263 0
	vmulpd	%xmm9, %xmm0, %xmm0
.LBE261:
.LBE299:
	.loc 1 212 0
	vmovsd	(%r10,%r14,8), %xmm9
.LBB300:
.LBB246:
	.loc 2 239 0
	vaddpd	%xmm15, %xmm6, %xmm6
.LVL220:
.LBE246:
.LBE300:
.LBB301:
.LBB227:
	.loc 2 122 0
	vmovupd	(%r8), %xmm15
.LBE227:
.LBE301:
.LBB302:
.LBB266:
	.loc 2 239 0
	vaddpd	%xmm14, %xmm8, %xmm8
.LVL221:
.LBE266:
.LBE302:
.LBB303:
.LBB271:
	vaddpd	%xmm3, %xmm10, %xmm10
.LVL222:
.LBE271:
.LBE303:
	.loc 1 207 0
	vmovsd	16(%r8), %xmm3
	.loc 1 208 0
	addq	%r15, %r8
.LBB304:
.LBB276:
	.loc 2 239 0
	vaddpd	%xmm0, %xmm2, %xmm2
.LVL223:
.LBE276:
.LBE304:
	.loc 1 215 0
	vmulsd	%xmm3, %xmm5, %xmm14
.LVL224:
.LBB305:
.LBB222:
	.loc 2 66 0
	vmovddup	%xmm5, %xmm5
.LBE222:
.LBE305:
	.loc 1 216 0
	vmulsd	%xmm3, %xmm7, %xmm0
.LBB306:
.LBB217:
	.loc 2 66 0
	vmovddup	%xmm7, %xmm7
.LBE217:
.LBE306:
	.loc 1 215 0
	vaddsd	%xmm14, %xmm11, %xmm11
.LVL225:
	.loc 1 217 0
	vmulsd	%xmm3, %xmm9, %xmm14
.LBB307:
.LBB237:
	.loc 2 66 0
	vmovddup	%xmm9, %xmm9
.LBE237:
.LBE307:
	.loc 1 218 0
	vmulsd	%xmm3, %xmm1, %xmm3
	.loc 1 216 0
	vaddsd	%xmm0, %xmm12, %xmm12
.LVL226:
.LBB308:
.LBB242:
	.loc 2 66 0
	vmovddup	%xmm1, %xmm1
.LBE242:
.LBE308:
.LBB309:
.LBB232:
	.loc 2 263 0
	vmulpd	%xmm5, %xmm15, %xmm0
.LBE232:
.LBE309:
	.loc 1 217 0
	vaddsd	%xmm14, %xmm13, %xmm13
.LVL227:
.LBB310:
.LBB252:
	.loc 2 263 0
	vmulpd	%xmm7, %xmm15, %xmm14
.LBE252:
.LBE310:
	.loc 1 218 0
	vaddsd	%xmm3, %xmm4, %xmm4
.LVL228:
.LBB311:
.LBB257:
	.loc 2 263 0
	vmulpd	%xmm9, %xmm15, %xmm3
.LBE257:
.LBE311:
.LBB312:
.LBB262:
	vmulpd	%xmm1, %xmm15, %xmm15
.LBE262:
.LBE312:
.LBB313:
.LBB247:
	.loc 2 239 0
	vaddpd	%xmm0, %xmm6, %xmm6
.LVL229:
.LBE247:
.LBE313:
.LBB314:
.LBB267:
	vaddpd	%xmm14, %xmm8, %xmm8
.LVL230:
.LBE267:
.LBE314:
.LBB315:
.LBB272:
	vaddpd	%xmm3, %xmm10, %xmm10
.LVL231:
.LBE272:
.LBE315:
.LBB316:
.LBB277:
	vaddpd	%xmm15, %xmm2, %xmm2
.LVL232:
.LBE277:
.LBE316:
	.loc 1 205 0
	cmpl	%eax, %ecx
	jg	.L65
.LVL233:
.L64:
.LBE212:
.LBB317:
.LBB318:
	.loc 2 164 0
	vmovups	%xmm6, (%r11)
.LVL234:
.LBE318:
.LBE317:
.LBB319:
.LBB320:
	vmovups	%xmm8, (%rbx)
.LVL235:
.LBE320:
.LBE319:
.LBB321:
.LBB322:
	vmovups	%xmm10, (%r12)
.LVL236:
.LBE322:
.LBE321:
.LBB323:
.LBB324:
	vmovups	%xmm2, 0(%r13)
.LBE324:
.LBE323:
	.loc 1 237 0
	vmovsd	%xmm11, 16(%r11)
	.loc 1 238 0
	vmovsd	%xmm12, 16(%rbx)
	.loc 1 239 0
	vmovsd	%xmm13, 16(%r12)
	.loc 1 240 0
	vmovsd	%xmm4, 16(%r13)
.LBE203:
	jmp	.L116
.LVL237:
	.p2align 4,,10
	.p2align 3
.L118:
.LBB325:
	.loc 1 248 0
	movslq	%edi, %rsi
.LVL238:
	.loc 1 261 0
	movslq	%edx, %rdx
.LBB326:
.LBB327:
	.loc 2 122 0
	vmovupd	(%r11), %xmm3
.LBE327:
.LBE326:
	.loc 1 248 0
	leaq	0(,%rsi,8), %rax
	.loc 1 261 0
	salq	$3, %rdx
.LVL239:
	.loc 1 248 0
	leaq	(%r11,%rax), %rsi
.LVL240:
	.loc 1 250 0
	leaq	(%rsi,%rax), %rdi
.LVL241:
.LBB328:
.LBB329:
	.loc 2 122 0
	vmovupd	(%rsi), %xmm4
.LBE329:
.LBE328:
	.loc 1 252 0
	leaq	(%rdi,%rax), %r10
.LVL242:
.LBB330:
.LBB331:
	.loc 2 122 0
	vmovupd	(%rdi), %xmm6
.LVL243:
.LBE331:
.LBE330:
	.loc 1 261 0
	leaq	(%r9,%rdx), %rbx
.LBB332:
.LBB333:
	.loc 2 122 0
	vmovupd	(%r10), %xmm2
.LVL244:
.LBE333:
.LBE332:
	.loc 1 263 0
	leaq	(%rbx,%rdx), %r12
.LVL245:
.LBB334:
	.loc 1 268 0
	testl	%ecx, %ecx
	jle	.L68
.LBB335:
.LBB336:
	.loc 2 122 0
	vmovupd	(%r8), %xmm7
	leaq	(%r12,%rdx), %r13
.LVL246:
.LBE336:
.LBE335:
.LBB340:
.LBB341:
	.loc 2 66 0
	vmovddup	(%r9), %xmm10
.LBE341:
.LBE340:
	.loc 1 270 0
	addq	%rax, %r8
.LVL247:
.LBB345:
.LBB346:
	.loc 2 66 0
	vmovddup	(%rbx), %xmm5
.LBE346:
.LBE345:
.LBB350:
.LBB351:
	vmovddup	(%r12), %xmm14
.LBE351:
.LBE350:
.LBB355:
.LBB356:
	vmovddup	0(%r13), %xmm9
	leal	-1(%rcx), %r15d
.LBE356:
.LBE355:
.LBB360:
.LBB361:
	.loc 2 263 0
	vmulpd	%xmm10, %xmm7, %xmm1
	andl	$1, %r15d
.LVL248:
	movl	$1, %r14d
.LBE361:
.LBE360:
.LBB365:
.LBB366:
	vmulpd	%xmm5, %xmm7, %xmm13
.LBE366:
.LBE365:
.LBB370:
.LBB371:
	vmulpd	%xmm14, %xmm7, %xmm8
.LBE371:
.LBE370:
.LBB375:
.LBB376:
	vmulpd	%xmm9, %xmm7, %xmm12
.LBE376:
.LBE375:
.LBB380:
.LBB381:
	.loc 2 239 0
	vaddpd	%xmm1, %xmm3, %xmm3
.LVL249:
.LBE381:
.LBE380:
.LBB385:
.LBB386:
	vaddpd	%xmm13, %xmm4, %xmm4
.LVL250:
.LBE386:
.LBE385:
.LBB390:
.LBB391:
	vaddpd	%xmm8, %xmm6, %xmm6
.LVL251:
.LBE391:
.LBE390:
.LBB395:
.LBB396:
	vaddpd	%xmm12, %xmm2, %xmm2
.LVL252:
.LBE396:
.LBE395:
	.loc 1 268 0
	cmpl	$1, %ecx
	jle	.L68
	testl	%r15d, %r15d
	je	.L69
.LVL253:
.LBB400:
.LBB337:
	.loc 2 122 0
	vmovupd	(%r8), %xmm11
.LBE337:
.LBE400:
.LBB401:
.LBB342:
	.loc 2 66 0
	vmovddup	8(%r9), %xmm0
.LBE342:
.LBE401:
	.loc 1 270 0
	addq	%rax, %r8
.LBB402:
.LBB347:
	.loc 2 66 0
	vmovddup	8(%rbx), %xmm7
.LBE347:
.LBE402:
.LBB403:
.LBB352:
	vmovddup	8(%r12), %xmm1
.LVL254:
.LBE352:
.LBE403:
.LBB404:
.LBB357:
	vmovddup	8(%r13), %xmm13
.LVL255:
	movl	$2, %r14d
.LBE357:
.LBE404:
.LBB405:
.LBB362:
	.loc 2 263 0
	vmulpd	%xmm0, %xmm11, %xmm15
.LVL256:
.LBE362:
.LBE405:
.LBB406:
.LBB367:
	vmulpd	%xmm7, %xmm11, %xmm10
.LVL257:
.LBE367:
.LBE406:
.LBB407:
.LBB372:
	vmulpd	%xmm1, %xmm11, %xmm5
.LVL258:
.LBE372:
.LBE407:
.LBB408:
.LBB377:
	vmulpd	%xmm13, %xmm11, %xmm14
.LBE377:
.LBE408:
.LBB409:
.LBB382:
	.loc 2 239 0
	vaddpd	%xmm15, %xmm3, %xmm3
.LVL259:
.LBE382:
.LBE409:
.LBB410:
.LBB387:
	vaddpd	%xmm10, %xmm4, %xmm4
.LVL260:
.LBE387:
.LBE410:
.LBB411:
.LBB392:
	vaddpd	%xmm5, %xmm6, %xmm6
.LVL261:
.LBE392:
.LBE411:
.LBB412:
.LBB397:
	vaddpd	%xmm14, %xmm2, %xmm2
.LVL262:
.LBE397:
.LBE412:
	.loc 1 268 0
	cmpl	$2, %ecx
	jle	.L68
.LVL263:
	.p2align 4,,10
	.p2align 3
.L69:
.LBB413:
.LBB338:
	.loc 2 122 0
	vmovupd	(%r8), %xmm8
.LBE338:
.LBE413:
.LBB414:
.LBB348:
	.loc 2 66 0
	vmovddup	(%rbx,%r14,8), %xmm0
	leaq	1(%r14), %rdx
.LBE348:
.LBE414:
	.loc 1 270 0
	addq	%rax, %r8
.LVL264:
.LBB415:
.LBB343:
	.loc 2 66 0
	vmovddup	(%r9,%r14,8), %xmm9
.LBE343:
.LBE415:
.LBB416:
.LBB339:
	.loc 2 122 0
	vmovupd	(%r8), %xmm14
.LBE339:
.LBE416:
	.loc 1 270 0
	addq	%rax, %r8
.LBB417:
.LBB344:
	.loc 2 66 0
	vmovddup	(%r9,%rdx,8), %xmm5
.LBE344:
.LBE417:
.LBB418:
.LBB368:
	.loc 2 263 0
	vmulpd	%xmm0, %xmm8, %xmm15
.LBE368:
.LBE418:
.LBB419:
.LBB358:
	.loc 2 66 0
	vmovddup	0(%r13,%rdx,8), %xmm0
.LBE358:
.LBE419:
.LBB420:
.LBB363:
	.loc 2 263 0
	vmulpd	%xmm9, %xmm8, %xmm12
.LBE363:
.LBE420:
.LBB421:
.LBB388:
	.loc 2 239 0
	vaddpd	%xmm15, %xmm4, %xmm7
.LBE388:
.LBE421:
.LBB422:
.LBB359:
	.loc 2 66 0
	vmovddup	0(%r13,%r14,8), %xmm4
.LVL265:
.LBE359:
.LBE422:
.LBB423:
.LBB378:
	.loc 2 263 0
	vmulpd	%xmm4, %xmm8, %xmm1
.LBE378:
.LBE423:
.LBB424:
.LBB383:
	.loc 2 239 0
	vaddpd	%xmm12, %xmm3, %xmm11
.LVL266:
.LBE383:
.LBE424:
.LBB425:
.LBB353:
	.loc 2 66 0
	vmovddup	(%r12,%r14,8), %xmm3
.LVL267:
.LBE353:
.LBE425:
.LBB426:
.LBB373:
	.loc 2 263 0
	vmulpd	%xmm3, %xmm8, %xmm10
.LBE373:
.LBE426:
.LBB427:
.LBB354:
	.loc 2 66 0
	vmovddup	(%r12,%rdx,8), %xmm12
.LBE354:
.LBE427:
.LBB428:
.LBB349:
	vmovddup	(%rbx,%rdx,8), %xmm8
.LBE349:
.LBE428:
.LBB429:
.LBB379:
	.loc 2 263 0
	vmulpd	%xmm0, %xmm14, %xmm15
	addq	$2, %r14
.LBE379:
.LBE429:
.LBB430:
.LBB369:
	vmulpd	%xmm8, %xmm14, %xmm9
.LBE369:
.LBE430:
.LBB431:
.LBB398:
	.loc 2 239 0
	vaddpd	%xmm1, %xmm2, %xmm13
.LBE398:
.LBE431:
.LBB432:
.LBB364:
	.loc 2 263 0
	vmulpd	%xmm5, %xmm14, %xmm2
.LVL268:
.LBE364:
.LBE432:
.LBB433:
.LBB393:
	.loc 2 239 0
	vaddpd	%xmm10, %xmm6, %xmm6
.LVL269:
.LBE393:
.LBE433:
.LBB434:
.LBB389:
	vaddpd	%xmm9, %xmm7, %xmm4
.LBE389:
.LBE434:
.LBB435:
.LBB384:
	vaddpd	%xmm2, %xmm11, %xmm3
.LVL270:
.LBE384:
.LBE435:
.LBB436:
.LBB374:
	.loc 2 263 0
	vmulpd	%xmm12, %xmm14, %xmm11
.LVL271:
.LBE374:
.LBE436:
.LBB437:
.LBB399:
	.loc 2 239 0
	vaddpd	%xmm15, %xmm13, %xmm2
.LBE399:
.LBE437:
.LBB438:
.LBB394:
	vaddpd	%xmm11, %xmm6, %xmm6
.LVL272:
.LBE394:
.LBE438:
	.loc 1 268 0
	cmpl	%r14d, %ecx
	jg	.L69
.LVL273:
.L68:
.LBE334:
.LBB439:
.LBB440:
	.loc 2 164 0
	vmovups	%xmm3, (%r11)
.LVL274:
.LBE440:
.LBE439:
.LBB441:
.LBB442:
	vmovups	%xmm4, (%rsi)
.LVL275:
.LBE442:
.LBE441:
.LBB443:
.LBB444:
	vmovups	%xmm6, (%rdi)
.LVL276:
.LBE444:
.LBE443:
.LBB445:
.LBB446:
	vmovups	%xmm2, (%r10)
	jmp	.L116
.LVL277:
	.p2align 4,,10
	.p2align 3
.L114:
	movq	%r8, %rdx
	movq	%rax, -88(%rbp)
	movl	-72(%rbp), %r14d
	movq	-120(%rbp), %r8
	movq	-128(%rbp), %rax
.L76:
.LBE446:
.LBE445:
.LBE325:
.LBB447:
.LBB202:
	.loc 1 313 0 discriminator 3
	vmovsd	(%r10,%rdi), %xmm15
	addl	$2, %r14d
	addq	$64, %rdx
	addq	$64, %r12
	vmovsd	(%r10,%rax), %xmm10
	addq	$64, %r13
	addq	$64, %r8
	vmovhpd	(%r10,%rdi,2), %xmm15, %xmm7
	.loc 1 317 0 discriminator 3
	vmovupd	-64(%r12), %xmm14
	vinsertf128	$0x1, -48(%r12), %ymm14, %ymm12
	.loc 1 313 0 discriminator 3
	vmovhpd	(%r10), %xmm10, %xmm9
	addq	-80(%rbp), %r10
	vinsertf128	$0x1, %xmm7, %ymm9, %ymm11
	.loc 1 318 0 discriminator 3
	vmovupd	-64(%r13), %xmm7
	.loc 1 316 0 discriminator 3
	vmulpd	-64(%rdx), %ymm11, %ymm13
	.loc 1 317 0 discriminator 3
	vmulpd	%ymm11, %ymm12, %ymm15
	.loc 1 318 0 discriminator 3
	vinsertf128	$0x1, -48(%r13), %ymm7, %ymm10
	.loc 1 316 0 discriminator 3
	vaddpd	%ymm13, %ymm8, %ymm8
	.loc 1 318 0 discriminator 3
	vmulpd	%ymm11, %ymm10, %ymm9
	.loc 1 319 0 discriminator 3
	vmovupd	-64(%r8), %xmm13
	.loc 1 317 0 discriminator 3
	vaddpd	%ymm15, %ymm1, %ymm1
	.loc 1 319 0 discriminator 3
	vinsertf128	$0x1, -48(%r8), %ymm13, %ymm14
	vmulpd	%ymm11, %ymm14, %ymm11
	.loc 1 317 0 discriminator 3
	vmovupd	-32(%r12), %xmm14
	.loc 1 319 0 discriminator 3
	vaddpd	%ymm11, %ymm0, %ymm12
	.loc 1 313 0 discriminator 3
	vmovsd	(%r10,%rax), %xmm7
	.loc 1 317 0 discriminator 3
	vinsertf128	$0x1, -16(%r12), %ymm14, %ymm11
	.loc 1 313 0 discriminator 3
	vmovsd	(%r10,%rdi), %xmm0
	.loc 1 318 0 discriminator 3
	vaddpd	%ymm9, %ymm2, %ymm2
	.loc 1 313 0 discriminator 3
	vmovhpd	(%r10), %xmm7, %xmm10
	vmovhpd	(%r10,%rdi,2), %xmm0, %xmm15
	addq	-80(%rbp), %r10
	vinsertf128	$0x1, %xmm15, %ymm10, %ymm9
	.loc 1 318 0 discriminator 3
	vmovupd	-32(%r13), %xmm15
	.loc 1 316 0 discriminator 3
	vmulpd	-32(%rdx), %ymm9, %ymm13
	.loc 1 317 0 discriminator 3
	vmulpd	%ymm9, %ymm11, %ymm0
	.loc 1 318 0 discriminator 3
	vinsertf128	$0x1, -16(%r13), %ymm15, %ymm7
	.loc 1 316 0 discriminator 3
	vaddpd	%ymm13, %ymm8, %ymm8
	.loc 1 318 0 discriminator 3
	vmulpd	%ymm9, %ymm7, %ymm10
	.loc 1 319 0 discriminator 3
	vmovupd	-32(%r8), %xmm13
	.loc 1 317 0 discriminator 3
	vaddpd	%ymm0, %ymm1, %ymm1
	.loc 1 319 0 discriminator 3
	vinsertf128	$0x1, -16(%r8), %ymm13, %ymm14
	vmulpd	%ymm9, %ymm14, %ymm9
	.loc 1 318 0 discriminator 3
	vaddpd	%ymm10, %ymm2, %ymm2
	.loc 1 319 0 discriminator 3
	vaddpd	%ymm9, %ymm12, %ymm0
	cmpl	-56(%rbp), %r14d
	jb	.L76
	movq	-88(%rbp), %rax
	jmp	.L108
	.p2align 4,,10
	.p2align 3
.L115:
	vzeroupper
	jmp	.L70
.LVL278:
	.p2align 4,,10
	.p2align 3
.L83:
	.loc 1 312 0
	movl	$1, -52(%rbp)
	jmp	.L73
.LVL279:
	.p2align 4,,10
	.p2align 3
.L86:
	movl	$4, -52(%rbp)
	jmp	.L73
.LVL280:
	.p2align 4,,10
	.p2align 3
.L85:
	movl	$3, -52(%rbp)
	jmp	.L73
.LVL281:
	.p2align 4,,10
	.p2align 3
.L84:
	movl	$2, -52(%rbp)
	jmp	.L73
.LVL282:
	.p2align 4,,10
	.p2align 3
.L113:
	movq	%rax, -88(%rbp)
	movl	-72(%rbp), %r14d
	movq	-112(%rbp), %rdx
	movq	-120(%rbp), %r8
	movq	-128(%rbp), %rax
	jmp	.L76
.LBE202:
.LBE447:
	.cfi_endproc
.LFE2251:
	.size	do_bfringex4_block, .-do_bfringex4_block
	.section	.text.unlikely
.LCOLDE2:
	.text
.LHOTE2:
	.section	.text.unlikely
.LCOLDB3:
	.text
.LHOTB3:
	.p2align 4,,15
	.globl	do_4xrfringe_block
	.type	do_4xrfringe_block, @function
do_4xrfringe_block:
.LFB2252:
	.loc 1 329 0
	.cfi_startproc
.LVL283:
	leaq	8(%rsp), %r10
	.cfi_def_cfa 10, 0
	andq	$-32, %rsp
	pushq	-8(%r10)
	pushq	%rbp
	.cfi_escape 0x10,0x6,0x2,0x76,0
	movq	%rsp, %rbp
	pushq	%r14
	pushq	%r13
	pushq	%r12
	pushq	%r10
	.cfi_escape 0xf,0x3,0x76,0x60,0x6
	.cfi_escape 0x10,0xe,0x2,0x76,0x78
	.cfi_escape 0x10,0xd,0x2,0x76,0x70
	.cfi_escape 0x10,0xc,0x2,0x76,0x68
	pushq	%rbx
	subq	$8, %rsp
	.cfi_escape 0x10,0x3,0x2,0x76,0x58
	call	mcount
	.loc 1 329 0
	movl	8(%r10), %eax
	movq	(%r10), %rsi
.LVL284:
	.loc 1 330 0
	cmpl	$3, %eax
	je	.L203
	.loc 1 363 0
	cmpl	$2, %eax
	je	.L204
	.loc 1 390 0
	cmpl	$1, %eax
	je	.L205
.LVL285:
.L202:
	.loc 1 412 0
	addq	$8, %rsp
	popq	%rbx
	popq	%r8
	.cfi_remember_state
	.cfi_def_cfa 10, 0
	popq	%r12
	popq	%r13
	popq	%r14
	popq	%rbp
	leaq	-8(%r8), %rsp
	.cfi_def_cfa 7, 8
	ret
.LVL286:
	.p2align 4,,10
	.p2align 3
.L205:
	.cfi_restore_state
.LBB448:
.LBB449:
.LBB450:
	.file 3 "/usr/lib/gcc/x86_64-pc-linux-gnu/4.9.3/include/avxintrin.h"
	.loc 3 856 0
	vmovupd	(%rsi), %ymm0
.LVL287:
.LBE450:
.LBE449:
.LBB451:
	.loc 1 401 0
	testl	%ecx, %ecx
	jle	.L129
	.loc 1 405 0
	leaq	8(%r9), %rbx
	subl	$1, %ecx
.LVL288:
	movslq	%edi, %rdi
.LBB452:
.LBB453:
	.loc 3 699 0
	vbroadcastsd	(%r9), %ymm1
	leaq	8(%r9,%rcx,8), %r11
	salq	$3, %rdi
.LVL289:
.LBE453:
.LBE452:
.LBB469:
.LBB470:
	.loc 3 298 0
	vmulpd	(%r8), %ymm1, %ymm2
	andl	$7, %ecx
.LVL290:
.LBE470:
.LBE469:
	.loc 1 403 0
	leaq	(%r8,%rdi), %rdx
.LVL291:
.LBB486:
.LBB487:
	.loc 3 127 0
	vaddpd	%ymm2, %ymm0, %ymm0
.LVL292:
	movq	%rbx, %r8
.LVL293:
.LBE487:
.LBE486:
	.loc 1 401 0
	cmpq	%r11, %rbx
	je	.L129
	testq	%rcx, %rcx
	je	.L130
	cmpq	$1, %rcx
	je	.L183
	cmpq	$2, %rcx
	je	.L184
	cmpq	$3, %rcx
	je	.L185
	cmpq	$4, %rcx
	je	.L186
	cmpq	$5, %rcx
	je	.L187
	cmpq	$6, %rcx
	je	.L188
.LVL294:
.LBB499:
.LBB500:
	.loc 3 856 0
	vmovupd	(%rdx), %ymm3
	leaq	8(%rbx), %r8
.LBE500:
.LBE499:
	.loc 1 403 0
	addq	%rdi, %rdx
.LVL295:
.LBB507:
.LBB454:
	.loc 3 699 0
	vbroadcastsd	(%rbx), %ymm4
.LBE454:
.LBE507:
.LBB508:
.LBB471:
	.loc 3 298 0
	vmulpd	%ymm4, %ymm3, %ymm5
.LVL296:
.LBE471:
.LBE508:
.LBB509:
.LBB488:
	.loc 3 127 0
	vaddpd	%ymm5, %ymm0, %ymm0
.LVL297:
.L188:
.LBE488:
.LBE509:
.LBB510:
.LBB501:
	.loc 3 856 0
	vmovupd	(%rdx), %ymm6
	addq	$8, %r8
.LBE501:
.LBE510:
	.loc 1 403 0
	addq	%rdi, %rdx
.LVL298:
.LBB511:
.LBB455:
	.loc 3 699 0
	vbroadcastsd	-8(%r8), %ymm7
.LBE455:
.LBE511:
.LBB512:
.LBB472:
	.loc 3 298 0
	vmulpd	%ymm7, %ymm6, %ymm8
.LVL299:
.LBE472:
.LBE512:
.LBB513:
.LBB489:
	.loc 3 127 0
	vaddpd	%ymm8, %ymm0, %ymm0
.LVL300:
.L187:
.LBE489:
.LBE513:
.LBB514:
.LBB502:
	.loc 3 856 0
	vmovupd	(%rdx), %ymm9
	addq	$8, %r8
.LBE502:
.LBE514:
	.loc 1 403 0
	addq	%rdi, %rdx
.LVL301:
.LBB515:
.LBB456:
	.loc 3 699 0
	vbroadcastsd	-8(%r8), %ymm10
.LBE456:
.LBE515:
.LBB516:
.LBB473:
	.loc 3 298 0
	vmulpd	%ymm10, %ymm9, %ymm11
.LVL302:
.LBE473:
.LBE516:
.LBB517:
.LBB490:
	.loc 3 127 0
	vaddpd	%ymm11, %ymm0, %ymm0
.LVL303:
.L186:
.LBE490:
.LBE517:
.LBB518:
.LBB503:
	.loc 3 856 0
	vmovupd	(%rdx), %ymm12
	addq	$8, %r8
.LBE503:
.LBE518:
	.loc 1 403 0
	addq	%rdi, %rdx
.LVL304:
.LBB519:
.LBB457:
	.loc 3 699 0
	vbroadcastsd	-8(%r8), %ymm13
.LBE457:
.LBE519:
.LBB520:
.LBB474:
	.loc 3 298 0
	vmulpd	%ymm13, %ymm12, %ymm14
.LVL305:
.LBE474:
.LBE520:
.LBB521:
.LBB491:
	.loc 3 127 0
	vaddpd	%ymm14, %ymm0, %ymm0
.LVL306:
.L185:
.LBE491:
.LBE521:
.LBB522:
.LBB504:
	.loc 3 856 0
	vmovupd	(%rdx), %ymm15
	addq	$8, %r8
.LBE504:
.LBE522:
	.loc 1 403 0
	addq	%rdi, %rdx
.LVL307:
.LBB523:
.LBB458:
	.loc 3 699 0
	vbroadcastsd	-8(%r8), %ymm1
.LVL308:
.LBE458:
.LBE523:
.LBB524:
.LBB475:
	.loc 3 298 0
	vmulpd	%ymm1, %ymm15, %ymm2
.LVL309:
.LBE475:
.LBE524:
.LBB525:
.LBB492:
	.loc 3 127 0
	vaddpd	%ymm2, %ymm0, %ymm0
.LVL310:
.L184:
.LBE492:
.LBE525:
.LBB526:
.LBB505:
	.loc 3 856 0
	vmovupd	(%rdx), %ymm3
	addq	$8, %r8
.LBE505:
.LBE526:
	.loc 1 403 0
	addq	%rdi, %rdx
.LVL311:
.LBB527:
.LBB459:
	.loc 3 699 0
	vbroadcastsd	-8(%r8), %ymm4
.LBE459:
.LBE527:
.LBB528:
.LBB476:
	.loc 3 298 0
	vmulpd	%ymm4, %ymm3, %ymm5
.LVL312:
.LBE476:
.LBE528:
.LBB529:
.LBB493:
	.loc 3 127 0
	vaddpd	%ymm5, %ymm0, %ymm0
.LVL313:
.L183:
.LBE493:
.LBE529:
.LBB530:
.LBB506:
	.loc 3 856 0
	vmovupd	(%rdx), %ymm6
	addq	$8, %r8
.LBE506:
.LBE530:
	.loc 1 403 0
	addq	%rdi, %rdx
.LVL314:
.LBB531:
.LBB460:
	.loc 3 699 0
	vbroadcastsd	-8(%r8), %ymm7
.LBE460:
.LBE531:
.LBB532:
.LBB477:
	.loc 3 298 0
	vmulpd	%ymm7, %ymm6, %ymm8
.LVL315:
.LBE477:
.LBE532:
.LBB533:
.LBB494:
	.loc 3 127 0
	vaddpd	%ymm8, %ymm0, %ymm0
.LVL316:
.LBE494:
.LBE533:
	.loc 1 401 0
	cmpq	%r11, %r8
	je	.L129
.LVL317:
.L130:
.LBB534:
.LBB461:
	.loc 3 699 0
	vbroadcastsd	(%r8), %ymm9
.LBE461:
.LBE534:
.LBB535:
.LBB478:
	.loc 3 298 0
	vmulpd	(%rdx), %ymm9, %ymm10
.LBE478:
.LBE535:
.LBB536:
.LBB495:
	.loc 3 127 0
	vaddpd	%ymm10, %ymm0, %ymm11
.LBE495:
.LBE536:
	.loc 1 403 0
	leaq	(%rdx,%rdi), %rcx
.LVL318:
.LBB537:
.LBB462:
	.loc 3 699 0
	vbroadcastsd	8(%r8), %ymm12
.LBE462:
.LBE537:
.LBB538:
.LBB479:
	.loc 3 298 0
	vmulpd	(%rcx), %ymm12, %ymm13
.LBE479:
.LBE538:
	.loc 1 403 0
	leaq	(%rcx,%rdi), %r9
.LVL319:
	addq	$64, %r8
.LBB539:
.LBB463:
	.loc 3 699 0
	vbroadcastsd	-48(%r8), %ymm15
.LBE463:
.LBE539:
.LBB540:
.LBB480:
	.loc 3 298 0
	vmulpd	(%r9), %ymm15, %ymm1
.LBE480:
.LBE540:
	.loc 1 403 0
	leaq	(%r9,%rdi), %r12
.LBB541:
.LBB496:
	.loc 3 127 0
	vaddpd	%ymm13, %ymm11, %ymm14
.LVL320:
.LBE496:
.LBE541:
.LBB542:
.LBB464:
	.loc 3 699 0
	vbroadcastsd	-40(%r8), %ymm2
.LBE464:
.LBE542:
	.loc 1 403 0
	leaq	(%r12,%rdi), %r13
.LBB543:
.LBB481:
	.loc 3 298 0
	vmulpd	(%r12), %ymm2, %ymm4
.LBE481:
.LBE543:
.LBB544:
.LBB465:
	.loc 3 699 0
	vbroadcastsd	-32(%r8), %ymm6
.LBE465:
.LBE544:
.LBB545:
.LBB482:
	.loc 3 298 0
	vmulpd	0(%r13), %ymm6, %ymm7
.LBE482:
.LBE545:
	.loc 1 403 0
	leaq	0(%r13,%rdi), %r14
.LBB546:
.LBB466:
	.loc 3 699 0
	vbroadcastsd	-24(%r8), %ymm0
.LVL321:
.LBE466:
.LBE546:
.LBB547:
.LBB483:
	.loc 3 298 0
	vmulpd	(%r14), %ymm0, %ymm9
.LBE483:
.LBE547:
	.loc 1 403 0
	leaq	(%r14,%rdi), %r10
.LBB548:
.LBB497:
	.loc 3 127 0
	vaddpd	%ymm1, %ymm14, %ymm3
.LVL322:
.LBE497:
.LBE548:
.LBB549:
.LBB467:
	.loc 3 699 0
	vbroadcastsd	-16(%r8), %ymm11
.LBE467:
.LBE549:
.LBB550:
.LBB484:
	.loc 3 298 0
	vmulpd	(%r10), %ymm11, %ymm12
.LBE484:
.LBE550:
	.loc 1 403 0
	leaq	(%r10,%rdi), %rax
.LBB551:
.LBB468:
	.loc 3 699 0
	vbroadcastsd	-8(%r8), %ymm14
.LBE468:
.LBE551:
	.loc 1 403 0
	leaq	(%rax,%rdi), %rdx
.LBB552:
.LBB485:
	.loc 3 298 0
	vmulpd	(%rax), %ymm14, %ymm15
.LBE485:
.LBE552:
.LBB553:
.LBB498:
	.loc 3 127 0
	vaddpd	%ymm4, %ymm3, %ymm5
.LVL323:
	vaddpd	%ymm7, %ymm5, %ymm8
.LVL324:
	vaddpd	%ymm9, %ymm8, %ymm10
.LVL325:
	vaddpd	%ymm12, %ymm10, %ymm13
.LVL326:
	vaddpd	%ymm15, %ymm13, %ymm0
.LVL327:
.LBE498:
.LBE553:
	.loc 1 401 0
	cmpq	%r11, %r8
	jne	.L130
.LVL328:
.L129:
.LBE451:
.LBB554:
.LBB555:
	.loc 3 862 0
	vmovupd	%ymm0, (%rsi)
.LVL329:
	vzeroupper
	jmp	.L202
.LVL330:
	.p2align 4,,10
	.p2align 3
.L203:
.LBE555:
.LBE554:
.LBE448:
.LBB556:
	.loc 1 336 0
	movslq	%edi, %rdi
	.loc 1 344 0
	movslq	%edx, %r12
.LBB557:
.LBB558:
	.loc 3 856 0
	vmovupd	(%rsi), %ymm4
.LBE558:
.LBE557:
	.loc 1 336 0
	salq	$3, %rdi
.LVL331:
	.loc 1 344 0
	salq	$3, %r12
	.loc 1 336 0
	leaq	(%rsi,%rdi), %r10
.LVL332:
	.loc 1 337 0
	leaq	(%r10,%rdi), %r11
.LVL333:
.LBB559:
.LBB560:
	.loc 3 856 0
	vmovupd	(%r10), %ymm2
.LVL334:
.LBE560:
.LBE559:
	.loc 1 344 0
	leaq	(%r9,%r12), %r13
.LBB561:
.LBB562:
	.loc 3 856 0
	vmovupd	(%r11), %ymm1
.LVL335:
.LBE562:
.LBE561:
	.loc 1 345 0
	addq	%r13, %r12
.LVL336:
.LBB563:
	.loc 1 347 0
	testl	%ecx, %ecx
	jle	.L123
	leal	-1(%rcx), %eax
.LBB564:
.LBB565:
	.loc 3 856 0
	vmovupd	(%r8), %ymm7
.LBE565:
.LBE564:
	.loc 1 349 0
	addq	%rdi, %r8
.LVL337:
	leaq	8(%r9,%rax,8), %rbx
.LBB573:
.LBB574:
	.loc 3 699 0
	vbroadcastsd	(%r9), %ymm0
	andl	$3, %eax
.LBE574:
.LBE573:
.LBB582:
.LBB583:
	vbroadcastsd	0(%r13), %ymm3
.LBE583:
.LBE582:
	.loc 1 352 0
	leaq	8(%r13), %rdx
.LVL338:
	movq	%rax, %r14
.LVL339:
.LBB591:
.LBB592:
	.loc 3 699 0
	vbroadcastsd	(%r12), %ymm6
.LVL340:
	leaq	8(%r9), %rax
.LVL341:
.LBE592:
.LBE591:
.LBB600:
.LBB601:
	.loc 3 298 0
	vmulpd	%ymm0, %ymm7, %ymm8
.LVL342:
.LBE601:
.LBE600:
.LBB609:
.LBB610:
	.loc 3 127 0
	vaddpd	%ymm8, %ymm4, %ymm4
.LVL343:
.LBE610:
.LBE609:
.LBB618:
.LBB619:
	.loc 3 298 0
	vmulpd	%ymm3, %ymm7, %ymm9
.LVL344:
.LBE619:
.LBE618:
	.loc 1 353 0
	leaq	8(%r12), %rcx
.LVL345:
.LBB627:
.LBB628:
	.loc 3 127 0
	vaddpd	%ymm9, %ymm2, %ymm2
.LVL346:
.LBE628:
.LBE627:
.LBB636:
.LBB637:
	.loc 3 298 0
	vmulpd	%ymm6, %ymm7, %ymm10
.LVL347:
.LBE637:
.LBE636:
.LBB645:
.LBB646:
	.loc 3 127 0
	vaddpd	%ymm10, %ymm1, %ymm1
.LVL348:
.LBE646:
.LBE645:
	.loc 1 347 0
	cmpq	%rbx, %rax
	je	.L123
	testq	%r14, %r14
	je	.L124
	cmpq	$1, %r14
	je	.L179
	cmpq	$2, %r14
	je	.L180
.LVL349:
.LBB654:
.LBB566:
	.loc 3 856 0
	vmovupd	(%r8), %ymm11
.LBE566:
.LBE654:
	.loc 1 349 0
	addq	%rdi, %r8
.LVL350:
.LBB655:
.LBB575:
	.loc 3 699 0
	vbroadcastsd	(%rax), %ymm12
.LVL351:
	leaq	16(%r9), %rax
.LVL352:
.LBE575:
.LBE655:
.LBB656:
.LBB584:
	vbroadcastsd	(%rdx), %ymm13
.LVL353:
.LBE584:
.LBE656:
	.loc 1 352 0
	leaq	16(%r13), %rdx
.LVL354:
.LBB657:
.LBB593:
	.loc 3 699 0
	vbroadcastsd	(%rcx), %ymm14
.LBE593:
.LBE657:
.LBB658:
.LBB602:
	.loc 3 298 0
	vmulpd	%ymm12, %ymm11, %ymm15
.LVL355:
.LBE602:
.LBE658:
.LBB659:
.LBB611:
	.loc 3 127 0
	vaddpd	%ymm15, %ymm4, %ymm4
.LVL356:
.LBE611:
.LBE659:
	.loc 1 353 0
	leaq	16(%r12), %rcx
.LVL357:
.LBB660:
.LBB620:
	.loc 3 298 0
	vmulpd	%ymm13, %ymm11, %ymm5
.LVL358:
.LBE620:
.LBE660:
.LBB661:
.LBB629:
	.loc 3 127 0
	vaddpd	%ymm5, %ymm2, %ymm2
.LVL359:
.LBE629:
.LBE661:
.LBB662:
.LBB638:
	.loc 3 298 0
	vmulpd	%ymm14, %ymm11, %ymm7
.LVL360:
.LBE638:
.LBE662:
.LBB663:
.LBB647:
	.loc 3 127 0
	vaddpd	%ymm7, %ymm1, %ymm1
.LVL361:
.L180:
.LBE647:
.LBE663:
.LBB664:
.LBB567:
	.loc 3 856 0
	vmovupd	(%r8), %ymm0
.LVL362:
	addq	$8, %rax
.LBE567:
.LBE664:
	.loc 1 349 0
	addq	%rdi, %r8
.LVL363:
	.loc 1 352 0
	addq	$8, %rdx
.LBB665:
.LBB576:
	.loc 3 699 0
	vbroadcastsd	-8(%rax), %ymm8
.LVL364:
.LBE576:
.LBE665:
	.loc 1 353 0
	addq	$8, %rcx
.LBB666:
.LBB585:
	.loc 3 699 0
	vbroadcastsd	-8(%rdx), %ymm3
.LVL365:
.LBE585:
.LBE666:
.LBB667:
.LBB594:
	vbroadcastsd	-8(%rcx), %ymm6
.LVL366:
.LBE594:
.LBE667:
.LBB668:
.LBB603:
	.loc 3 298 0
	vmulpd	%ymm8, %ymm0, %ymm9
.LVL367:
.LBE603:
.LBE668:
.LBB669:
.LBB612:
	.loc 3 127 0
	vaddpd	%ymm9, %ymm4, %ymm4
.LVL368:
.LBE612:
.LBE669:
.LBB670:
.LBB621:
	.loc 3 298 0
	vmulpd	%ymm3, %ymm0, %ymm10
.LVL369:
.LBE621:
.LBE670:
.LBB671:
.LBB630:
	.loc 3 127 0
	vaddpd	%ymm10, %ymm2, %ymm2
.LVL370:
.LBE630:
.LBE671:
.LBB672:
.LBB639:
	.loc 3 298 0
	vmulpd	%ymm6, %ymm0, %ymm11
.LVL371:
.LBE639:
.LBE672:
.LBB673:
.LBB648:
	.loc 3 127 0
	vaddpd	%ymm11, %ymm1, %ymm1
.LVL372:
.L179:
.LBE648:
.LBE673:
.LBB674:
.LBB568:
	.loc 3 856 0
	vmovupd	(%r8), %ymm12
	addq	$8, %rax
.LBE568:
.LBE674:
	.loc 1 349 0
	addq	%rdi, %r8
.LVL373:
	.loc 1 352 0
	addq	$8, %rdx
.LBB675:
.LBB577:
	.loc 3 699 0
	vbroadcastsd	-8(%rax), %ymm13
.LVL374:
.LBE577:
.LBE675:
	.loc 1 353 0
	addq	$8, %rcx
.LBB676:
.LBB586:
	.loc 3 699 0
	vbroadcastsd	-8(%rdx), %ymm14
.LVL375:
.LBE586:
.LBE676:
.LBB677:
.LBB595:
	vbroadcastsd	-8(%rcx), %ymm15
.LBE595:
.LBE677:
.LBB678:
.LBB604:
	.loc 3 298 0
	vmulpd	%ymm13, %ymm12, %ymm5
.LVL376:
.LBE604:
.LBE678:
.LBB679:
.LBB613:
	.loc 3 127 0
	vaddpd	%ymm5, %ymm4, %ymm4
.LVL377:
.LBE613:
.LBE679:
.LBB680:
.LBB622:
	.loc 3 298 0
	vmulpd	%ymm14, %ymm12, %ymm7
.LVL378:
.LBE622:
.LBE680:
.LBB681:
.LBB631:
	.loc 3 127 0
	vaddpd	%ymm7, %ymm2, %ymm2
.LVL379:
.LBE631:
.LBE681:
.LBB682:
.LBB640:
	.loc 3 298 0
	vmulpd	%ymm15, %ymm12, %ymm0
.LVL380:
.LBE640:
.LBE682:
.LBB683:
.LBB649:
	.loc 3 127 0
	vaddpd	%ymm0, %ymm1, %ymm1
.LVL381:
.LBE649:
.LBE683:
	.loc 1 347 0
	cmpq	%rbx, %rax
	je	.L123
.L124:
.LVL382:
.LBB684:
.LBB569:
	.loc 3 856 0
	vmovupd	(%r8), %ymm8
.LBE569:
.LBE684:
	.loc 1 349 0
	addq	%rdi, %r8
.LVL383:
	addq	$32, %rax
	.loc 1 352 0
	addq	$32, %rdx
.LBB685:
.LBB578:
	.loc 3 699 0
	vbroadcastsd	-32(%rax), %ymm9
.LVL384:
.LBE578:
.LBE685:
	.loc 1 353 0
	addq	$32, %rcx
.LBB686:
.LBB587:
	.loc 3 699 0
	vbroadcastsd	-32(%rdx), %ymm3
.LVL385:
.LBE587:
.LBE686:
.LBB687:
.LBB596:
	vbroadcastsd	-32(%rcx), %ymm6
.LBE596:
.LBE687:
.LBB688:
.LBB605:
	.loc 3 298 0
	vmulpd	%ymm9, %ymm8, %ymm10
.LBE605:
.LBE688:
.LBB689:
.LBB614:
	.loc 3 127 0
	vaddpd	%ymm10, %ymm4, %ymm11
.LVL386:
.LBE614:
.LBE689:
.LBB690:
.LBB623:
	.loc 3 298 0
	vmulpd	%ymm3, %ymm8, %ymm12
.LBE623:
.LBE690:
.LBB691:
.LBB632:
	.loc 3 127 0
	vaddpd	%ymm12, %ymm2, %ymm13
.LVL387:
.LBE632:
.LBE691:
.LBB692:
.LBB570:
	.loc 3 856 0
	vmovupd	(%r8), %ymm4
.LVL388:
.LBE570:
.LBE692:
	.loc 1 349 0
	addq	%rdi, %r8
.LBB693:
.LBB641:
	.loc 3 298 0
	vmulpd	%ymm6, %ymm8, %ymm14
.LBE641:
.LBE693:
.LBB694:
.LBB650:
	.loc 3 127 0
	vaddpd	%ymm14, %ymm1, %ymm15
.LVL389:
.LBE650:
.LBE694:
.LBB695:
.LBB579:
	.loc 3 699 0
	vbroadcastsd	-24(%rax), %ymm5
.LVL390:
.LBE579:
.LBE695:
.LBB696:
.LBB588:
	vbroadcastsd	-24(%rdx), %ymm7
.LVL391:
.LBE588:
.LBE696:
.LBB697:
.LBB597:
	vbroadcastsd	-24(%rcx), %ymm2
.LVL392:
.LBE597:
.LBE697:
.LBB698:
.LBB606:
	.loc 3 298 0
	vmulpd	%ymm5, %ymm4, %ymm0
.LBE606:
.LBE698:
.LBB699:
.LBB615:
	.loc 3 127 0
	vaddpd	%ymm0, %ymm11, %ymm8
.LBE615:
.LBE699:
.LBB700:
.LBB624:
	.loc 3 298 0
	vmulpd	%ymm7, %ymm4, %ymm1
.LVL393:
.LBE624:
.LBE700:
.LBB701:
.LBB633:
	.loc 3 127 0
	vaddpd	%ymm1, %ymm13, %ymm9
.LBE633:
.LBE701:
.LBB702:
.LBB571:
	.loc 3 856 0
	vmovupd	(%r8), %ymm11
.LBE571:
.LBE702:
	.loc 1 349 0
	addq	%rdi, %r8
.LBB703:
.LBB642:
	.loc 3 298 0
	vmulpd	%ymm2, %ymm4, %ymm3
.LBE642:
.LBE703:
.LBB704:
.LBB651:
	.loc 3 127 0
	vaddpd	%ymm3, %ymm15, %ymm10
.LVL394:
.LBE651:
.LBE704:
.LBB705:
.LBB580:
	.loc 3 699 0
	vbroadcastsd	-16(%rax), %ymm12
.LVL395:
.LBE580:
.LBE705:
.LBB706:
.LBB589:
	vbroadcastsd	-16(%rdx), %ymm13
.LVL396:
.LBE589:
.LBE706:
.LBB707:
.LBB598:
	vbroadcastsd	-16(%rcx), %ymm6
.LBE598:
.LBE707:
.LBB708:
.LBB607:
	.loc 3 298 0
	vmulpd	%ymm12, %ymm11, %ymm14
.LBE607:
.LBE708:
.LBB709:
.LBB616:
	.loc 3 127 0
	vaddpd	%ymm14, %ymm8, %ymm15
.LBE616:
.LBE709:
.LBB710:
.LBB625:
	.loc 3 298 0
	vmulpd	%ymm13, %ymm11, %ymm4
.LBE625:
.LBE710:
.LBB711:
.LBB634:
	.loc 3 127 0
	vaddpd	%ymm4, %ymm9, %ymm7
.LBE634:
.LBE711:
.LBB712:
.LBB572:
	.loc 3 856 0
	vmovupd	(%r8), %ymm8
.LBE572:
.LBE712:
	.loc 1 349 0
	addq	%rdi, %r8
.LBB713:
.LBB643:
	.loc 3 298 0
	vmulpd	%ymm6, %ymm11, %ymm5
.LBE643:
.LBE713:
.LBB714:
.LBB652:
	.loc 3 127 0
	vaddpd	%ymm5, %ymm10, %ymm0
.LVL397:
.LBE652:
.LBE714:
.LBB715:
.LBB581:
	.loc 3 699 0
	vbroadcastsd	-8(%rax), %ymm2
.LVL398:
.LBE581:
.LBE715:
.LBB716:
.LBB590:
	vbroadcastsd	-8(%rdx), %ymm1
.LVL399:
.LBE590:
.LBE716:
.LBB717:
.LBB599:
	vbroadcastsd	-8(%rcx), %ymm9
.LBE599:
.LBE717:
.LBB718:
.LBB608:
	.loc 3 298 0
	vmulpd	%ymm2, %ymm8, %ymm3
.LVL400:
.LBE608:
.LBE718:
.LBB719:
.LBB617:
	.loc 3 127 0
	vaddpd	%ymm3, %ymm15, %ymm4
.LVL401:
.LBE617:
.LBE719:
.LBB720:
.LBB626:
	.loc 3 298 0
	vmulpd	%ymm1, %ymm8, %ymm10
.LVL402:
.LBE626:
.LBE720:
.LBB721:
.LBB635:
	.loc 3 127 0
	vaddpd	%ymm10, %ymm7, %ymm2
.LVL403:
.LBE635:
.LBE721:
.LBB722:
.LBB644:
	.loc 3 298 0
	vmulpd	%ymm9, %ymm8, %ymm11
.LVL404:
.LBE644:
.LBE722:
.LBB723:
.LBB653:
	.loc 3 127 0
	vaddpd	%ymm11, %ymm0, %ymm1
.LVL405:
.LBE653:
.LBE723:
	.loc 1 347 0
	cmpq	%rbx, %rax
	jne	.L124
.LVL406:
.L123:
.LBE563:
.LBB724:
.LBB725:
	.loc 3 862 0
	vmovupd	%ymm4, (%rsi)
.LVL407:
.LBE725:
.LBE724:
.LBB726:
.LBB727:
	vmovupd	%ymm2, (%r10)
.LVL408:
.LBE727:
.LBE726:
.LBB728:
.LBB729:
	vmovupd	%ymm1, (%r11)
	vzeroupper
	jmp	.L202
.LVL409:
	.p2align 4,,10
	.p2align 3
.L204:
.LBE729:
.LBE728:
.LBE556:
.LBB730:
	.loc 1 369 0
	movslq	%edi, %rdi
	.loc 1 375 0
	movslq	%edx, %r11
.LBB731:
.LBB732:
	.loc 3 856 0
	vmovupd	(%rsi), %ymm3
.LBE732:
.LBE731:
	.loc 1 375 0
	leaq	(%r9,%r11,8), %rbx
	.loc 1 369 0
	salq	$3, %rdi
.LVL410:
	leaq	(%rsi,%rdi), %r10
.LVL411:
.LBB733:
.LBB734:
	.loc 3 856 0
	vmovupd	(%r10), %ymm0
.LVL412:
.LBE734:
.LBE733:
.LBB735:
	.loc 1 377 0
	testl	%ecx, %ecx
	jle	.L127
.LBB736:
.LBB737:
	.loc 3 856 0
	vmovupd	(%r8), %ymm1
	leal	-1(%rcx), %edx
.LVL413:
.LBE737:
.LBE736:
	.loc 1 379 0
	addq	%rdi, %r8
.LVL414:
.LBB745:
.LBB746:
	.loc 3 699 0
	vbroadcastsd	(%r9), %ymm2
	leaq	8(%r9,%rdx,8), %r12
	andl	$3, %edx
.LVL415:
.LBE746:
.LBE745:
.LBB754:
.LBB755:
	vbroadcastsd	(%rbx), %ymm4
.LVL416:
	leaq	8(%r9), %r13
.LVL417:
.LBE755:
.LBE754:
.LBB763:
.LBB764:
	.loc 3 298 0
	vmulpd	%ymm2, %ymm1, %ymm5
.LVL418:
.LBE764:
.LBE763:
	.loc 1 382 0
	leaq	8(%rbx), %r14
.LVL419:
.LBB772:
.LBB773:
	.loc 3 127 0
	vaddpd	%ymm5, %ymm3, %ymm3
.LVL420:
.LBE773:
.LBE772:
.LBB781:
.LBB782:
	.loc 3 298 0
	vmulpd	%ymm4, %ymm1, %ymm6
.LVL421:
.LBE782:
.LBE781:
.LBB790:
.LBB791:
	.loc 3 127 0
	vaddpd	%ymm6, %ymm0, %ymm0
.LVL422:
.LBE791:
.LBE790:
	.loc 1 377 0
	cmpq	%r12, %r13
	je	.L127
	testq	%rdx, %rdx
	je	.L128
	cmpq	$1, %rdx
	je	.L181
	cmpq	$2, %rdx
	je	.L182
.LVL423:
.LBB799:
.LBB738:
	.loc 3 856 0
	vmovupd	(%r8), %ymm7
.LBE738:
.LBE799:
	.loc 1 379 0
	addq	%rdi, %r8
.LVL424:
.LBB800:
.LBB747:
	.loc 3 699 0
	vbroadcastsd	0(%r13), %ymm8
.LVL425:
	leaq	16(%r9), %r13
.LVL426:
.LBE747:
.LBE800:
.LBB801:
.LBB756:
	vbroadcastsd	(%r14), %ymm9
.LBE756:
.LBE801:
	.loc 1 382 0
	leaq	16(%rbx), %r14
.LVL427:
.LBB802:
.LBB765:
	.loc 3 298 0
	vmulpd	%ymm8, %ymm7, %ymm10
.LVL428:
.LBE765:
.LBE802:
.LBB803:
.LBB774:
	.loc 3 127 0
	vaddpd	%ymm10, %ymm3, %ymm3
.LVL429:
.LBE774:
.LBE803:
.LBB804:
.LBB783:
	.loc 3 298 0
	vmulpd	%ymm9, %ymm7, %ymm11
.LVL430:
.LBE783:
.LBE804:
.LBB805:
.LBB792:
	.loc 3 127 0
	vaddpd	%ymm11, %ymm0, %ymm0
.LVL431:
.L182:
.LBE792:
.LBE805:
.LBB806:
.LBB739:
	.loc 3 856 0
	vmovupd	(%r8), %ymm12
	addq	$8, %r13
.LBE739:
.LBE806:
	.loc 1 379 0
	addq	%rdi, %r8
.LVL432:
	.loc 1 382 0
	addq	$8, %r14
.LBB807:
.LBB748:
	.loc 3 699 0
	vbroadcastsd	-8(%r13), %ymm13
.LVL433:
.LBE748:
.LBE807:
.LBB808:
.LBB757:
	vbroadcastsd	-8(%r14), %ymm14
.LBE757:
.LBE808:
.LBB809:
.LBB766:
	.loc 3 298 0
	vmulpd	%ymm13, %ymm12, %ymm15
.LVL434:
.LBE766:
.LBE809:
.LBB810:
.LBB775:
	.loc 3 127 0
	vaddpd	%ymm15, %ymm3, %ymm3
.LVL435:
.LBE775:
.LBE810:
.LBB811:
.LBB784:
	.loc 3 298 0
	vmulpd	%ymm14, %ymm12, %ymm1
.LVL436:
.LBE784:
.LBE811:
.LBB812:
.LBB793:
	.loc 3 127 0
	vaddpd	%ymm1, %ymm0, %ymm0
.LVL437:
.L181:
.LBE793:
.LBE812:
.LBB813:
.LBB740:
	.loc 3 856 0
	vmovupd	(%r8), %ymm5
.LVL438:
	addq	$8, %r13
.LBE740:
.LBE813:
	.loc 1 379 0
	addq	%rdi, %r8
.LVL439:
	.loc 1 382 0
	addq	$8, %r14
.LBB814:
.LBB749:
	.loc 3 699 0
	vbroadcastsd	-8(%r13), %ymm2
.LVL440:
.LBE749:
.LBE814:
.LBB815:
.LBB758:
	vbroadcastsd	-8(%r14), %ymm4
.LVL441:
.LBE758:
.LBE815:
.LBB816:
.LBB767:
	.loc 3 298 0
	vmulpd	%ymm2, %ymm5, %ymm6
.LVL442:
.LBE767:
.LBE816:
.LBB817:
.LBB776:
	.loc 3 127 0
	vaddpd	%ymm6, %ymm3, %ymm3
.LVL443:
.LBE776:
.LBE817:
.LBB818:
.LBB785:
	.loc 3 298 0
	vmulpd	%ymm4, %ymm5, %ymm7
.LVL444:
.LBE785:
.LBE818:
.LBB819:
.LBB794:
	.loc 3 127 0
	vaddpd	%ymm7, %ymm0, %ymm0
.LVL445:
.LBE794:
.LBE819:
	.loc 1 377 0
	cmpq	%r12, %r13
	je	.L127
.L128:
.LVL446:
.LBB820:
.LBB741:
	.loc 3 856 0
	vmovupd	(%r8), %ymm8
.LBE741:
.LBE820:
	.loc 1 379 0
	addq	%rdi, %r8
.LVL447:
	addq	$32, %r13
	.loc 1 382 0
	addq	$32, %r14
.LBB821:
.LBB750:
	.loc 3 699 0
	vbroadcastsd	-32(%r13), %ymm9
.LVL448:
.LBE750:
.LBE821:
.LBB822:
.LBB759:
	vbroadcastsd	-32(%r14), %ymm10
.LBE759:
.LBE822:
.LBB823:
.LBB768:
	.loc 3 298 0
	vmulpd	%ymm9, %ymm8, %ymm11
.LBE768:
.LBE823:
.LBB824:
.LBB777:
	.loc 3 127 0
	vaddpd	%ymm11, %ymm3, %ymm12
.LVL449:
.LBE777:
.LBE824:
.LBB825:
.LBB742:
	.loc 3 856 0
	vmovupd	(%r8), %ymm15
.LBE742:
.LBE825:
	.loc 1 379 0
	addq	%rdi, %r8
.LBB826:
.LBB786:
	.loc 3 298 0
	vmulpd	%ymm10, %ymm8, %ymm13
.LBE786:
.LBE826:
.LBB827:
.LBB795:
	.loc 3 127 0
	vaddpd	%ymm13, %ymm0, %ymm14
.LVL450:
.LBE795:
.LBE827:
.LBB828:
.LBB751:
	.loc 3 699 0
	vbroadcastsd	-24(%r13), %ymm1
.LVL451:
.LBE751:
.LBE828:
.LBB829:
.LBB760:
	vbroadcastsd	-24(%r14), %ymm5
.LBE760:
.LBE829:
.LBB830:
.LBB769:
	.loc 3 298 0
	vmulpd	%ymm1, %ymm15, %ymm2
.LBE769:
.LBE830:
.LBB831:
.LBB778:
	.loc 3 127 0
	vaddpd	%ymm2, %ymm12, %ymm4
.LVL452:
.LBE778:
.LBE831:
.LBB832:
.LBB743:
	.loc 3 856 0
	vmovupd	(%r8), %ymm0
.LVL453:
.LBE743:
.LBE832:
	.loc 1 379 0
	addq	%rdi, %r8
.LBB833:
.LBB787:
	.loc 3 298 0
	vmulpd	%ymm5, %ymm15, %ymm6
.LBE787:
.LBE833:
.LBB834:
.LBB796:
	.loc 3 127 0
	vaddpd	%ymm6, %ymm14, %ymm7
.LVL454:
.LBE796:
.LBE834:
.LBB835:
.LBB752:
	.loc 3 699 0
	vbroadcastsd	-16(%r13), %ymm3
.LVL455:
.LBE752:
.LBE835:
.LBB836:
.LBB761:
	vbroadcastsd	-16(%r14), %ymm8
.LBE761:
.LBE836:
.LBB837:
.LBB770:
	.loc 3 298 0
	vmulpd	%ymm3, %ymm0, %ymm9
.LBE770:
.LBE837:
.LBB838:
.LBB779:
	.loc 3 127 0
	vaddpd	%ymm9, %ymm4, %ymm10
.LBE779:
.LBE838:
.LBB839:
.LBB744:
	.loc 3 856 0
	vmovupd	(%r8), %ymm13
.LBE744:
.LBE839:
	.loc 1 379 0
	addq	%rdi, %r8
.LBB840:
.LBB788:
	.loc 3 298 0
	vmulpd	%ymm8, %ymm0, %ymm11
.LBE788:
.LBE840:
.LBB841:
.LBB797:
	.loc 3 127 0
	vaddpd	%ymm11, %ymm7, %ymm12
.LVL456:
.LBE797:
.LBE841:
.LBB842:
.LBB753:
	.loc 3 699 0
	vbroadcastsd	-8(%r13), %ymm14
.LVL457:
.LBE753:
.LBE842:
.LBB843:
.LBB762:
	vbroadcastsd	-8(%r14), %ymm15
.LBE762:
.LBE843:
.LBB844:
.LBB771:
	.loc 3 298 0
	vmulpd	%ymm14, %ymm13, %ymm1
.LVL458:
.LBE771:
.LBE844:
.LBB845:
.LBB780:
	.loc 3 127 0
	vaddpd	%ymm1, %ymm10, %ymm3
.LVL459:
.LBE780:
.LBE845:
.LBB846:
.LBB789:
	.loc 3 298 0
	vmulpd	%ymm15, %ymm13, %ymm5
.LVL460:
.LBE789:
.LBE846:
.LBB847:
.LBB798:
	.loc 3 127 0
	vaddpd	%ymm5, %ymm12, %ymm0
.LVL461:
.LBE798:
.LBE847:
	.loc 1 377 0
	cmpq	%r12, %r13
	jne	.L128
.LVL462:
.L127:
.LBE735:
.LBB848:
.LBB849:
	.loc 3 862 0
	vmovupd	%ymm3, (%rsi)
.LVL463:
.LBE849:
.LBE848:
.LBB850:
.LBB851:
	vmovupd	%ymm0, (%r10)
	vzeroupper
	jmp	.L202
.LBE851:
.LBE850:
.LBE730:
	.cfi_endproc
.LFE2252:
	.size	do_4xrfringe_block, .-do_4xrfringe_block
	.section	.text.unlikely
.LCOLDE3:
	.text
.LHOTE3:
	.section	.text.unlikely
.LCOLDB4:
	.text
.LHOTB4:
	.p2align 4,,15
	.globl	copy4x4toa
	.type	copy4x4toa, @function
copy4x4toa:
.LFB2253:
	.loc 1 414 0
	.cfi_startproc
.LVL464:
	leaq	8(%rsp), %r10
	.cfi_def_cfa 10, 0
	andq	$-32, %rsp
	pushq	-8(%r10)
	pushq	%rbp
	.cfi_escape 0x10,0x6,0x2,0x76,0
	movq	%rsp, %rbp
	pushq	%r10
	.cfi_escape 0xf,0x3,0x76,0x78,0x6
	subq	$8, %rsp
	call	mcount
	.loc 1 414 0
.LVL465:
.LBB852:
.LBB853:
	.loc 3 856 0
	vmovupd	(%rsi), %ymm0
.LVL466:
.LBE853:
.LBE852:
	.loc 1 416 0
	movslq	%edi, %rdi
.LBB854:
.LBB855:
	.loc 3 838 0
	vmovapd	%ymm0, (%rdx)
.LBE855:
.LBE854:
	.loc 1 416 0
	salq	$3, %rdi
.LVL467:
	addq	%rdi, %rsi
.LVL468:
.LBB856:
.LBB857:
	.loc 3 856 0
	vmovupd	(%rsi), %ymm1
.LVL469:
.LBE857:
.LBE856:
	.loc 1 417 0
	addq	%rdi, %rsi
.LVL470:
.LBB858:
.LBB859:
	.loc 3 838 0
	vmovapd	%ymm1, 32(%rdx)
.LBE859:
.LBE858:
.LBB860:
.LBB861:
	.loc 3 856 0
	vmovupd	(%rsi), %ymm2
.LVL471:
.LBE861:
.LBE860:
.LBB862:
.LBB863:
	.loc 3 838 0
	vmovapd	%ymm2, 64(%rdx)
.LVL472:
.LBE863:
.LBE862:
.LBB864:
.LBB865:
	.loc 3 856 0
	vmovupd	(%rsi,%rdi), %ymm3
.LVL473:
.LBE865:
.LBE864:
.LBB866:
.LBB867:
	.loc 3 838 0
	vmovapd	%ymm3, 96(%rdx)
	vzeroupper
.LBE867:
.LBE866:
	.loc 1 420 0
	addq	$8, %rsp
	popq	%rax
	.cfi_def_cfa 10, 0
	popq	%rbp
	leaq	-8(%rax), %rsp
	.cfi_def_cfa 7, 8
	ret
	.cfi_endproc
.LFE2253:
	.size	copy4x4toa, .-copy4x4toa
	.section	.text.unlikely
.LCOLDE4:
	.text
.LHOTE4:
	.section	.text.unlikely
.LCOLDB5:
	.text
.LHOTB5:
	.p2align 4,,15
	.globl	copy4x4tou
	.type	copy4x4tou, @function
copy4x4tou:
.LFB2254:
	.loc 1 421 0
	.cfi_startproc
.LVL474:
	leaq	8(%rsp), %r10
	.cfi_def_cfa 10, 0
	andq	$-32, %rsp
	pushq	-8(%r10)
	pushq	%rbp
	.cfi_escape 0x10,0x6,0x2,0x76,0
	movq	%rsp, %rbp
	pushq	%r10
	.cfi_escape 0xf,0x3,0x76,0x78,0x6
	subq	$8, %rsp
	call	mcount
	.loc 1 421 0
.LVL475:
.LBB868:
.LBB869:
	.loc 3 862 0
	vmovapd	(%rsi), %ymm0
.LBE869:
.LBE868:
	.loc 1 423 0
	movslq	%edi, %rdi
.LBB871:
.LBB870:
	.loc 3 862 0
	vmovupd	%ymm0, (%rdx)
.LVL476:
.LBE870:
.LBE871:
.LBB872:
.LBB873:
	vmovapd	32(%rsi), %ymm1
.LBE873:
.LBE872:
	.loc 1 423 0
	salq	$3, %rdi
.LVL477:
	addq	%rdi, %rdx
.LVL478:
.LBB875:
.LBB874:
	.loc 3 862 0
	vmovupd	%ymm1, (%rdx)
.LVL479:
.LBE874:
.LBE875:
.LBB876:
.LBB877:
	vmovapd	64(%rsi), %ymm2
.LBE877:
.LBE876:
	.loc 1 424 0
	addq	%rdi, %rdx
.LVL480:
.LBB879:
.LBB878:
	.loc 3 862 0
	vmovupd	%ymm2, (%rdx)
.LVL481:
.LBE878:
.LBE879:
.LBB880:
.LBB881:
	vmovapd	96(%rsi), %ymm3
	vmovupd	%ymm3, (%rdx,%rdi)
.LVL482:
	vzeroupper
.LBE881:
.LBE880:
	.loc 1 427 0
	addq	$8, %rsp
	popq	%rax
	.cfi_def_cfa 10, 0
	popq	%rbp
	leaq	-8(%rax), %rsp
	.cfi_def_cfa 7, 8
	ret
	.cfi_endproc
.LFE2254:
	.size	copy4x4tou, .-copy4x4tou
	.section	.text.unlikely
.LCOLDE5:
	.text
.LHOTE5:
	.section	.text.unlikely
.LCOLDB6:
	.text
.LHOTB6:
	.p2align 4,,15
	.globl	do_l1_block
	.type	do_l1_block, @function
do_l1_block:
.LFB2255:
	.loc 1 437 0
	.cfi_startproc
.LVL483:
	leaq	8(%rsp), %r10
	.cfi_def_cfa 10, 0
	andq	$-32, %rsp
	pushq	-8(%r10)
	pushq	%rbp
	.cfi_escape 0x10,0x6,0x2,0x76,0
	movq	%rsp, %rbp
	pushq	%r15
	pushq	%r14
	pushq	%r13
	pushq	%r12
	pushq	%r10
	.cfi_escape 0xf,0x3,0x76,0x58,0x6
	.cfi_escape 0x10,0xf,0x2,0x76,0x78
	.cfi_escape 0x10,0xe,0x2,0x76,0x70
	.cfi_escape 0x10,0xd,0x2,0x76,0x68
	.cfi_escape 0x10,0xc,0x2,0x76,0x60
	pushq	%rbx
	subq	$192, %rsp
	.cfi_escape 0x10,0x3,0x2,0x76,0x50
	call	mcount
	.loc 1 437 0
	movq	8(%r10), %rax
	movq	(%r10), %r15
	movl	%esi, -72(%rbp)
	movl	%edx, %r13d
	movl	%r8d, %esi
.LVL484:
	movl	%r9d, %r14d
	movl	%edx, -52(%rbp)
	movq	16(%r10), %rdx
.LVL485:
	.loc 1 441 0
	movl	%esi, %r10d
	.loc 1 437 0
	movq	%rax, %rbx
	movl	%r8d, -116(%rbp)
	.loc 1 440 0
	movl	%ecx, %r8d
.LVL486:
	.loc 1 441 0
	sarl	$31, %r10d
	.loc 1 440 0
	sarl	$31, %r8d
	.loc 1 441 0
	shrl	$30, %r10d
	.loc 1 437 0
	movq	%rax, -64(%rbp)
	.loc 1 443 0
	movl	%ecx, %eax
	.loc 1 440 0
	shrl	$30, %r8d
	.loc 1 437 0
	movl	%edi, -56(%rbp)
	movq	%rdx, -128(%rbp)
	.loc 1 440 0
	leal	(%rcx,%r8), %r9d
.LVL487:
	.loc 1 437 0
	movq	%rdx, %r12
	.loc 1 441 0
	leal	(%rsi,%r10), %edx
	.loc 1 440 0
	andl	$3, %r9d
	.loc 1 437 0
	movl	%ecx, -212(%rbp)
	.loc 1 441 0
	andl	$3, %edx
	.loc 1 440 0
	subl	%r8d, %r9d
	.loc 1 441 0
	subl	%r10d, %edx
	.loc 1 443 0
	subl	%r9d, %eax
	.loc 1 440 0
	movl	%r9d, -168(%rbp)
.LVL488:
	.loc 1 442 0
	subl	%edx, %esi
.LVL489:
	.loc 1 441 0
	movl	%edx, -176(%rbp)
.LVL490:
	.loc 1 443 0
	movl	%eax, %r9d
.LVL491:
	.loc 1 442 0
	movl	%esi, -120(%rbp)
.LVL492:
	.loc 1 443 0
	movl	%eax, -84(%rbp)
.LVL493:
	.loc 1 451 0
	testl	%esi, %esi
	jle	.L209
	movl	%edi, %eax
.LVL494:
	movl	%r9d, %edi
.LVL495:
	movq	$0, -104(%rbp)
	sall	$2, %eax
.LVL496:
	subl	$1, %edi
	movl	$0, -88(%rbp)
	cltq
	shrl	$2, %edi
	movl	%r14d, -80(%rbp)
	movq	%rax, -136(%rbp)
	movl	%r13d, %eax
	movl	%edi, %r13d
.LVL497:
	sall	$2, %eax
.LVL498:
	addq	$1, %r13
	cltq
	salq	$5, %r13
	salq	$3, %rax
	movq	%r13, -96(%rbp)
	movq	%rax, -160(%rbp)
	leal	4(,%rdi,4), %eax
	cltq
	movq	%rax, -144(%rbp)
	salq	$3, %rax
	movq	%rax, -152(%rbp)
.LVL499:
	.p2align 4,,10
	.p2align 3
.L210:
	movq	-104(%rbp), %r14
	.loc 1 453 0 discriminator 1
	xorl	%edx, %edx
	xorl	%esi, %esi
	movl	-84(%rbp), %r10d
	leaq	0(,%r14,8), %r13
	testl	%r10d, %r10d
	jle	.L213
	movq	-96(%rbp), %r8
	.loc 1 456 0 discriminator 3
	subq	$8, %rsp
	movl	$32, %r14d
	movl	-52(%rbp), %edx
	leaq	(%r12,%r13), %r9
	movl	-72(%rbp), %esi
	pushq	%r9
	movq	%rbx, %r9
	movl	-56(%rbp), %edi
	leaq	-32(%r8), %rcx
	movq	%r15, %r8
	shrq	$5, %rcx
	andl	$3, %ecx
	movq	%rcx, -112(%rbp)
.LVL500:
	movl	-80(%rbp), %ecx
	call	do_4x4_block
.LVL501:
	.loc 1 453 0 discriminator 3
	cmpq	-96(%rbp), %r14
	popq	%rax
	movq	-112(%rbp), %r11
	popq	%rdx
	je	.L292
	testq	%r11, %r11
	je	.L239
	cmpq	$1, %r11
	je	.L281
	cmpq	$2, %r11
	je	.L282
	.loc 1 456 0
	subq	$8, %rsp
	movl	-80(%rbp), %ecx
	movq	%rbx, %r9
	movl	$64, %r14d
	leaq	32(%r12,%r13), %rdi
	movl	-52(%rbp), %edx
	pushq	%rdi
	movl	-72(%rbp), %esi
	leaq	32(%r15), %r8
	movl	-56(%rbp), %edi
	call	do_4x4_block
.LVL502:
	.loc 1 453 0
	popq	%rdi
	popq	%r8
.L282:
	.loc 1 456 0
	movl	-80(%rbp), %ecx
	subq	$8, %rsp
	movq	%rbx, %r9
	movl	-72(%rbp), %esi
	leaq	(%r14,%r13), %rax
	movl	-52(%rbp), %edx
	leaq	(%r15,%r14), %r8
	addq	%r12, %rax
	addq	$32, %r14
	movl	-56(%rbp), %edi
	pushq	%rax
	call	do_4x4_block
.LVL503:
	.loc 1 453 0
	popq	%rcx
	popq	%rsi
.L281:
	.loc 1 456 0
	movl	-52(%rbp), %edx
	subq	$8, %rsp
	movq	%rbx, %r9
	movl	-80(%rbp), %ecx
	leaq	(%r14,%r13), %r10
	movl	-72(%rbp), %esi
	leaq	(%r15,%r14), %r8
	addq	%r12, %r10
	addq	$32, %r14
	movl	-56(%rbp), %edi
	pushq	%r10
	call	do_4x4_block
.LVL504:
	.loc 1 453 0
	popq	%rax
	popq	%rdx
	cmpq	-96(%rbp), %r14
	je	.L292
.L239:
	.loc 1 456 0 discriminator 3
	subq	$8, %rsp
	movl	-80(%rbp), %ecx
	movq	%rbx, %r9
	leaq	(%r14,%r13), %rdx
	movl	-72(%rbp), %esi
	movl	-56(%rbp), %edi
	leaq	(%r15,%r14), %r8
	addq	%r12, %rdx
	pushq	%rdx
	movl	-52(%rbp), %edx
	call	do_4x4_block
.LVL505:
	leaq	32(%r14), %rsi
	movl	-80(%rbp), %ecx
	movq	%rbx, %r9
	leaq	(%rsi,%r13), %r8
	movl	-52(%rbp), %edx
	addq	%r12, %r8
	movl	-56(%rbp), %edi
	movq	%r8, (%rsp)
	leaq	(%r15,%rsi), %r8
	movl	-72(%rbp), %esi
	call	do_4x4_block
.LVL506:
	leaq	64(%r14), %rcx
	movl	-52(%rbp), %edx
	leaq	(%r15,%rcx), %r8
	movl	-72(%rbp), %esi
	leaq	(%rcx,%r13), %r9
	movl	-56(%rbp), %edi
	movl	-80(%rbp), %ecx
	addq	%r12, %r9
	movq	%r9, (%rsp)
	movq	%rbx, %r9
	call	do_4x4_block
.LVL507:
	leaq	96(%r14), %r11
	movl	-80(%rbp), %ecx
	movq	%rbx, %r9
	leaq	(%r11,%r13), %rdi
	movl	-52(%rbp), %edx
	subq	$-128, %r14
	movl	-72(%rbp), %esi
	leaq	(%r15,%r11), %r8
	addq	%r12, %rdi
	movq	%rdi, (%rsp)
	movl	-56(%rbp), %edi
	call	do_4x4_block
.LVL508:
	.loc 1 453 0 discriminator 3
	popq	%r11
	popq	%rax
	cmpq	-96(%rbp), %r14
	jne	.L239
.L292:
	movq	-152(%rbp), %rdx
	movq	-144(%rbp), %rsi
.L213:
	.loc 1 463 0 discriminator 2
	movq	-104(%rbp), %r14
	leaq	(%r15,%rdx), %r8
	movq	%rbx, %r9
	movl	-168(%rbp), %r13d
	movl	-52(%rbp), %edx
	movl	-80(%rbp), %ecx
	addq	%r14, %rsi
	movl	-56(%rbp), %edi
	leaq	(%r12,%rsi,8), %r10
	movl	-72(%rbp), %esi
	pushq	%r13
	pushq	%r10
	call	do_bfringex4_block
.LVL509:
	movq	-136(%rbp), %r8
	movq	%r14, %rsi
	.loc 1 451 0 discriminator 2
	addl	$4, -88(%rbp)
.LVL510:
	popq	%r9
	movl	-88(%rbp), %edx
.LVL511:
	addq	%r8, %rsi
	addq	-160(%rbp), %rbx
	movq	%rsi, -104(%rbp)
	popq	%r10
	cmpl	%edx, -120(%rbp)
	jg	.L210
	movl	-80(%rbp), %r14d
.LVL512:
.L209:
.LBB882:
	.loc 1 469 0
	movl	-84(%rbp), %ebx
	testl	%ebx, %ebx
	jle	.L218
	movl	-84(%rbp), %edi
	.loc 1 470 0
	movl	%r14d, %ecx
	movl	-120(%rbp), %r12d
	movl	-52(%rbp), %r11d
	movq	-64(%rbp), %r9
	subl	$1, %edi
	movq	-128(%rbp), %rbx
	shrl	$2, %edi
	movl	%r12d, %edx
	movl	%r12d, %eax
	movl	-176(%rbp), %r8d
	addq	$1, %rdi
	imull	%r11d, %eax
	salq	$5, %rdi
	movq	%rdi, %r10
	movl	-56(%rbp), %edi
	movq	%r10, %rsi
	cltq
	pushq	%r8
	movq	%r15, %r8
	leaq	(%r9,%rax,8), %r13
	subq	$32, %rsi
	movq	%r10, -80(%rbp)
	shrq	$5, %rsi
	movq	%r13, %r9
	imull	%edi, %edx
	andl	$3, %esi
	movq	%rsi, -96(%rbp)
.LVL513:
	movl	-72(%rbp), %esi
	movslq	%edx, %r12
	movl	%r11d, %edx
	salq	$3, %r12
	addq	%r12, %rbx
	pushq	%rbx
	movl	$32, %ebx
	call	do_4xrfringe_block
.LVL514:
	.loc 1 469 0
	cmpq	-80(%rbp), %rbx
	popq	%rcx
	movq	-96(%rbp), %rax
	popq	%rsi
	je	.L218
	testq	%rax, %rax
	je	.L217
	cmpq	$1, %rax
	je	.L279
	cmpq	$2, %rax
	je	.L280
	movq	-128(%rbp), %rcx
	.loc 1 470 0
	leaq	32(%r15), %r8
	movl	$64, %ebx
	movl	-176(%rbp), %r11d
	movl	-52(%rbp), %edx
	movl	-72(%rbp), %esi
	movl	-56(%rbp), %edi
	leaq	32(%rcx,%r12), %r9
	movl	%r14d, %ecx
	pushq	%r11
	pushq	%r9
	movq	%r13, %r9
	call	do_4xrfringe_block
.LVL515:
	.loc 1 469 0
	popq	%rax
	popq	%rdx
.L280:
	.loc 1 470 0
	movl	-176(%rbp), %edi
	movq	%r13, %r9
	movl	%r14d, %ecx
	leaq	(%rbx,%r12), %r10
	addq	-128(%rbp), %r10
	movl	-52(%rbp), %edx
	movl	-72(%rbp), %esi
	leaq	(%r15,%rbx), %r8
	addq	$32, %rbx
	pushq	%rdi
	movl	-56(%rbp), %edi
	pushq	%r10
	call	do_4xrfringe_block
.LVL516:
	.loc 1 469 0
	popq	%r11
	popq	%rax
.L279:
	.loc 1 470 0
	movl	-176(%rbp), %edx
	movq	%r13, %r9
	movl	%r14d, %ecx
	leaq	(%rbx,%r12), %rsi
	addq	-128(%rbp), %rsi
	movl	-56(%rbp), %edi
	leaq	(%r15,%rbx), %r8
	addq	$32, %rbx
	pushq	%rdx
	movl	-52(%rbp), %edx
	pushq	%rsi
	movl	-72(%rbp), %esi
	call	do_4xrfringe_block
.LVL517:
	.loc 1 469 0
	popq	%r9
	popq	%r10
	cmpq	-80(%rbp), %rbx
	je	.L218
.L217:
	.loc 1 470 0 discriminator 3
	movl	-176(%rbp), %r8d
	movq	%r13, %r9
	movl	%r14d, %ecx
	leaq	(%rbx,%r12), %rax
	addq	-128(%rbp), %rax
	movl	-52(%rbp), %edx
	movl	-72(%rbp), %esi
	movl	-56(%rbp), %edi
	pushq	%r8
	leaq	(%r15,%rbx), %r8
	pushq	%rax
	call	do_4xrfringe_block
.LVL518:
	leaq	32(%rbx), %r11
	movl	-176(%rbp), %ecx
	leaq	(%r11,%r12), %r9
	addq	-128(%rbp), %r9
	.loc 1 469 0 discriminator 3
	popq	%rsi
	.loc 1 470 0 discriminator 3
	movl	-52(%rbp), %edx
	.loc 1 469 0 discriminator 3
	popq	%rdi
	.loc 1 470 0 discriminator 3
	leaq	(%r15,%r11), %r8
	pushq	%rcx
	movl	%r14d, %ecx
	movl	-72(%rbp), %esi
	pushq	%r9
	movq	%r13, %r9
	movl	-56(%rbp), %edi
	call	do_4xrfringe_block
.LVL519:
	leaq	64(%rbx), %rdi
	.loc 1 469 0 discriminator 3
	popq	%r8
	.loc 1 470 0 discriminator 3
	movl	%r14d, %ecx
	movl	-176(%rbp), %r10d
	leaq	(%rdi,%r12), %rdx
	addq	-128(%rbp), %rdx
	.loc 1 469 0 discriminator 3
	popq	%r9
	.loc 1 470 0 discriminator 3
	movq	%r13, %r9
	movl	-72(%rbp), %esi
	pushq	%r10
	leaq	(%r15,%rdi), %r8
	movl	-56(%rbp), %edi
	pushq	%rdx
	movl	-52(%rbp), %edx
	call	do_4xrfringe_block
.LVL520:
	leaq	96(%rbx), %rsi
	.loc 1 469 0 discriminator 3
	popq	%r10
	.loc 1 470 0 discriminator 3
	movq	%r13, %r9
	movl	-176(%rbp), %r8d
	movl	%r14d, %ecx
	subq	$-128, %rbx
	leaq	(%rsi,%r12), %rax
	addq	-128(%rbp), %rax
	.loc 1 469 0 discriminator 3
	popq	%r11
	.loc 1 470 0 discriminator 3
	movl	-52(%rbp), %edx
	pushq	%r8
	movl	-56(%rbp), %edi
	leaq	(%r15,%rsi), %r8
	movl	-72(%rbp), %esi
	pushq	%rax
	call	do_4xrfringe_block
.LVL521:
	.loc 1 469 0 discriminator 3
	popq	%rax
	popq	%rdx
	cmpq	-80(%rbp), %rbx
	jne	.L217
.L218:
.LVL522:
.LBE882:
.LBB883:
	.loc 1 474 0
	movl	-84(%rbp), %r13d
	cmpl	%r13d, -212(%rbp)
	jle	.L302
	movl	-120(%rbp), %ecx
	movl	-56(%rbp), %r12d
	movslq	-84(%rbp), %r11
	movq	-128(%rbp), %rbx
	movl	%ecx, %eax
	movslq	-52(%rbp), %r8
	imull	%r12d, %eax
	movl	%r12d, %r10d
	movslq	%r12d, %rdx
	movq	%rdx, %rdi
	movq	%rdx, -200(%rbp)
	addq	%r11, %rdx
	leaq	0(,%rdi,8), %r13
.LBB884:
.LBB885:
.LBB886:
	.loc 1 478 0
	movq	%r11, -112(%rbp)
	movq	%r8, -136(%rbp)
	leaq	(%r15,%rdx,8), %r12
	cltq
	addq	%r11, %rax
	leaq	(%rbx,%rax,8), %r9
	movq	%r8, %rax
	salq	$3, %r8
	imull	%ecx, %eax
	movq	-64(%rbp), %rcx
	leal	-1(%r14), %r11d
	movq	%r8, -128(%rbp)
	movq	%r9, -208(%rbp)
	movl	%r10d, %r9d
	movl	%r11d, -144(%rbp)
	movl	%eax, -216(%rbp)
	cltq
	leaq	(%rcx,%rax,8), %rbx
	movq	%rax, -224(%rbp)
	movl	%r10d, %eax
	addl	%eax, %eax
	movq	%rbx, -232(%rbp)
	movslq	%eax, %r10
	addl	%r9d, %eax
	cltq
	subq	%rdi, %r10
	movq	%rax, %rsi
	movl	%r9d, %eax
	movq	%r10, -168(%rbp)
.LVL523:
	sall	$2, %eax
	subq	%rdi, %rsi
	movslq	%eax, %rbx
	addl	%r9d, %eax
	movq	%rsi, -184(%rbp)
	cltq
	subq	%rdi, %rbx
	subq	%rdi, %rax
	salq	$5, %rdi
	movq	%rbx, -192(%rbp)
	movq	%rdi, -80(%rbp)
	movq	%r13, %rdi
	negq	%rdi
	movq	%rax, -176(%rbp)
.LVL524:
	movq	%rdi, -96(%rbp)
.LVL525:
	.p2align 4,,10
	.p2align 3
.L219:
.LBE886:
.LBE885:
	.loc 1 475 0 discriminator 1
	movl	-120(%rbp), %r10d
	cmpl	%r10d, -116(%rbp)
	jle	.L232
	.loc 1 475 0 is_stmt 0
	movq	-224(%rbp), %rdx
	movl	-216(%rbp), %r11d
	movq	-232(%rbp), %rcx
	movq	-208(%rbp), %rdi
	movq	%rdx, -72(%rbp)
	jmp	.L231
.LVL526:
	.p2align 4,,10
	.p2align 3
.L304:
.LBB889:
.LBB887:
	.loc 1 478 0 is_stmt 1
	movq	-112(%rbp), %rsi
	vmovsd	(%rcx), %xmm0
	vmulsd	(%r15,%rsi,8), %xmm0, %xmm1
	vaddsd	%xmm1, %xmm2, %xmm2
.LVL527:
	cmpl	$1, %eax
	je	.L234
	vmovsd	8(%rcx), %xmm3
	vmulsd	(%r12), %xmm3, %xmm4
	vaddsd	%xmm4, %xmm2, %xmm2
.LVL528:
	cmpl	$2, %eax
	je	.L235
	movq	-168(%rbp), %r8
	vmovsd	16(%rcx), %xmm5
	vmulsd	(%r12,%r8,8), %xmm5, %xmm6
	vaddsd	%xmm6, %xmm2, %xmm2
.LVL529:
	cmpl	$3, %eax
	je	.L236
	movq	-184(%rbp), %rbx
	vmovsd	24(%rcx), %xmm7
	vmulsd	(%r12,%rbx,8), %xmm7, %xmm8
	vaddsd	%xmm8, %xmm2, %xmm2
.LVL530:
	cmpl	$4, %eax
	je	.L237
	movq	-192(%rbp), %r9
	vmovsd	32(%rcx), %xmm9
	vmulsd	(%r12,%r9,8), %xmm9, %xmm10
	vaddsd	%xmm10, %xmm2, %xmm2
.LVL531:
	cmpl	$6, %eax
	jne	.L238
	movq	-176(%rbp), %rdx
	vmovsd	40(%rcx), %xmm11
	vmulsd	(%r12,%rdx,8), %xmm11, %xmm12
	.loc 1 477 0
	movl	$6, %edx
	.loc 1 478 0
	vaddsd	%xmm12, %xmm2, %xmm2
.LVL532:
.L223:
	cmpl	%eax, %r14d
	je	.L220
.L222:
	movl	%r14d, %esi
	movl	%eax, %r8d
	subl	%eax, %esi
	movl	%esi, -88(%rbp)
	subl	$4, %esi
	shrl	$2, %esi
	leal	1(%rsi), %r9d
	leal	0(,%r9,4), %ebx
	movl	%ebx, -104(%rbp)
	movl	-144(%rbp), %ebx
	subl	%eax, %ebx
	cmpl	$2, %ebx
	jbe	.L225
	movq	-200(%rbp), %rax
	andl	$3, %esi
	movl	%esi, -160(%rbp)
.LVL533:
	movq	-96(%rbp), %rsi
	movq	-64(%rbp), %rbx
	imulq	%r8, %rax
	addq	-72(%rbp), %r8
	addq	-112(%rbp), %rax
	leaq	(%rbx,%r8,8), %r8
	leaq	0(%r13,%rax,8), %rax
	movq	%r8, -152(%rbp)
	leaq	32(%r8), %r8
	addq	%r15, %rax
	vmovsd	(%rax,%rsi), %xmm15
	movl	$1, %esi
	vmovsd	(%rax,%r13), %xmm13
	vmovhpd	(%rax), %xmm15, %xmm0
	vmovhpd	(%rax,%r13,2), %xmm13, %xmm14
	addq	-80(%rbp), %rax
	vinsertf128	$0x1, %xmm14, %ymm0, %ymm1
	vmulpd	-32(%r8), %ymm1, %ymm0
	cmpl	$1, %r9d
	jbe	.L293
	movl	-160(%rbp), %ebx
	testl	%ebx, %ebx
	je	.L296
	cmpl	$1, %ebx
	je	.L277
	cmpl	$2, %ebx
	je	.L278
	movq	-96(%rbp), %r8
	movl	$2, %esi
	movq	-152(%rbp), %rbx
	vmovsd	(%rax,%r13), %xmm3
	vmovsd	(%rax,%r8), %xmm5
	vmovhpd	(%rax,%r13,2), %xmm3, %xmm4
	leaq	64(%rbx), %r8
	vmovhpd	(%rax), %xmm5, %xmm6
	addq	-80(%rbp), %rax
	vinsertf128	$0x1, %xmm4, %ymm6, %ymm7
	vmulpd	32(%rbx), %ymm7, %ymm8
	vaddpd	%ymm8, %ymm0, %ymm0
.L278:
	movq	-96(%rbp), %rbx
	addl	$1, %esi
	addq	$32, %r8
	vmovsd	(%rax,%r13), %xmm9
	vmovhpd	(%rax,%r13,2), %xmm9, %xmm10
	vmovsd	(%rax,%rbx), %xmm11
	vmovhpd	(%rax), %xmm11, %xmm12
	addq	-80(%rbp), %rax
	vinsertf128	$0x1, %xmm10, %ymm12, %ymm13
	vmulpd	-32(%r8), %ymm13, %ymm14
	vaddpd	%ymm14, %ymm0, %ymm0
.L277:
	movq	-96(%rbp), %rbx
	addl	$1, %esi
	addq	$32, %r8
	vmovsd	(%rax,%r13), %xmm15
	vmovhpd	(%rax,%r13,2), %xmm15, %xmm1
	vmovsd	(%rax,%rbx), %xmm3
	vmovhpd	(%rax), %xmm3, %xmm4
	addq	-80(%rbp), %rax
	vinsertf128	$0x1, %xmm1, %ymm4, %ymm5
	vmulpd	-32(%r8), %ymm5, %ymm6
	vaddpd	%ymm6, %ymm0, %ymm0
	cmpl	%esi, %r9d
	jbe	.L293
.L296:
	movl	%edx, -152(%rbp)
	movq	-72(%rbp), %rbx
	movq	-96(%rbp), %rdx
.L226:
	.loc 1 478 0 is_stmt 0 discriminator 3
	vmovsd	(%rax,%r13), %xmm7
	addl	$4, %esi
	subq	$-128, %r8
	vmovsd	(%rax,%rdx), %xmm9
	vmovhpd	(%rax,%r13,2), %xmm7, %xmm8
	vmovhpd	(%rax), %xmm9, %xmm10
	addq	-80(%rbp), %rax
	vinsertf128	$0x1, %xmm8, %ymm10, %ymm11
	vmulpd	-128(%r8), %ymm11, %ymm12
	vaddpd	%ymm12, %ymm0, %ymm13
	vmovsd	(%rax,%r13), %xmm14
	vmovsd	(%rax,%rdx), %xmm1
	vmovhpd	(%rax,%r13,2), %xmm14, %xmm15
	vmovhpd	(%rax), %xmm1, %xmm3
	addq	-80(%rbp), %rax
	vinsertf128	$0x1, %xmm15, %ymm3, %ymm4
	vmulpd	-96(%r8), %ymm4, %ymm5
	vaddpd	%ymm5, %ymm13, %ymm8
	vmovsd	(%rax,%r13), %xmm6
	vmovsd	(%rax,%rdx), %xmm7
	vmovhpd	(%rax,%r13,2), %xmm6, %xmm0
	vmovhpd	(%rax), %xmm7, %xmm9
	addq	-80(%rbp), %rax
	vinsertf128	$0x1, %xmm0, %ymm9, %ymm10
	vmulpd	-64(%r8), %ymm10, %ymm11
	vaddpd	%ymm11, %ymm8, %ymm12
	vmovsd	(%rax,%r13), %xmm13
	vmovsd	(%rax,%rdx), %xmm15
	vmovhpd	(%rax,%r13,2), %xmm13, %xmm14
	vmovhpd	(%rax), %xmm15, %xmm1
	addq	-80(%rbp), %rax
	vinsertf128	$0x1, %xmm14, %ymm1, %ymm3
	vmulpd	-32(%r8), %ymm3, %ymm4
	vaddpd	%ymm4, %ymm12, %ymm0
	cmpl	%esi, %r9d
	ja	.L226
	movl	-152(%rbp), %edx
	movq	%rbx, -72(%rbp)
	.p2align 4,,10
	.p2align 3
.L293:
	vhaddpd	%ymm0, %ymm0, %ymm5
	movl	-104(%rbp), %r9d
	vperm2f128	$1, %ymm5, %ymm5, %ymm8
	vaddpd	%ymm8, %ymm5, %ymm6
	addl	%r9d, %edx
	vaddsd	%xmm6, %xmm2, %xmm2
	cmpl	-88(%rbp), %r9d
	je	.L220
.L225:
.LVL534:
	.loc 1 478 0
	movl	-56(%rbp), %ebx
	movl	-84(%rbp), %r9d
	leal	(%rdx,%r11), %esi
	movslq	%esi, %rsi
	movl	%ebx, %eax
	imull	%edx, %eax
	leal	(%rax,%r9), %r8d
	movslq	%r8d, %r8
	vmovsd	(%r15,%r8,8), %xmm0
	movq	-64(%rbp), %r8
	vmulsd	(%r8,%rsi,8), %xmm0, %xmm7
	.loc 1 477 0 is_stmt 1
	leal	1(%rdx), %esi
	.loc 1 478 0
	vaddsd	%xmm7, %xmm2, %xmm2
.LVL535:
	.loc 1 477 0
	cmpl	%esi, %r14d
	jle	.L220
	.loc 1 478 0
	addl	%ebx, %eax
	movq	-64(%rbp), %rbx
	addl	%r11d, %esi
.LVL536:
	.loc 1 477 0
	addl	$2, %edx
.LVL537:
	.loc 1 478 0
	leal	(%r9,%rax), %r9d
	movslq	%esi, %rsi
	movslq	%r9d, %r8
	vmovsd	(%r15,%r8,8), %xmm9
	vmulsd	(%rbx,%rsi,8), %xmm9, %xmm10
	vaddsd	%xmm10, %xmm2, %xmm2
.LVL538:
	.loc 1 477 0
	cmpl	%edx, %r14d
	jle	.L220
	.loc 1 478 0
	addl	-56(%rbp), %eax
	addl	%r11d, %edx
	addl	-84(%rbp), %eax
	movslq	%edx, %rdx
	cltq
	vmovsd	(%r15,%rax,8), %xmm11
	movq	-64(%rbp), %rax
	vmulsd	(%rax,%rdx,8), %xmm11, %xmm12
	vaddsd	%xmm12, %xmm2, %xmm2
.LVL539:
.L220:
.LBE887:
	.loc 1 480 0 discriminator 2
	vmovsd	%xmm2, (%rdi)
.LBE889:
	.loc 1 475 0 discriminator 2
	addl	$1, %r10d
.LVL540:
	addq	%r13, %rdi
	addq	-128(%rbp), %rcx
	movq	-136(%rbp), %r9
	addl	-52(%rbp), %r11d
	addq	%r9, -72(%rbp)
	cmpl	-116(%rbp), %r10d
	je	.L232
.L231:
.LBB890:
	.loc 1 476 0
	vmovsd	(%rdi), %xmm2
.LVL541:
.LBB888:
	.loc 1 477 0
	testl	%r14d, %r14d
	jle	.L220
	movq	%rcx, %rax
	andl	$31, %eax
	shrq	$3, %rax
	negq	%rax
	andl	$3, %eax
	cmpl	%r14d, %eax
	cmova	%r14d, %eax
	cmpl	$6, %r14d
	cmovbe	%r14d, %eax
	testl	%eax, %eax
	jne	.L304
	xorl	%edx, %edx
	jmp	.L222
.LVL542:
	.p2align 4,,10
	.p2align 3
.L238:
	movl	$5, %edx
	jmp	.L223
.LVL543:
	.p2align 4,,10
	.p2align 3
.L237:
	movl	$4, %edx
	jmp	.L223
.LVL544:
	.p2align 4,,10
	.p2align 3
.L236:
	movl	$3, %edx
	jmp	.L223
.LVL545:
	.p2align 4,,10
	.p2align 3
.L235:
	movl	$2, %edx
	jmp	.L223
.LVL546:
	.p2align 4,,10
	.p2align 3
.L234:
	movl	$1, %edx
	jmp	.L223
.LVL547:
	.p2align 4,,10
	.p2align 3
.L232:
.LBE888:
.LBE890:
.LBE884:
	.loc 1 474 0
	addl	$1, -84(%rbp)
.LVL548:
	addq	$8, %r12
	movl	-84(%rbp), %r11d
.LVL549:
	addq	$8, -208(%rbp)
	addq	$1, -112(%rbp)
	cmpl	-212(%rbp), %r11d
	jne	.L219
	vzeroupper
.LVL550:
.L302:
.LBE883:
	.loc 1 485 0
	leaq	-48(%rbp), %rsp
	popq	%rbx
	popq	%rcx
	.cfi_def_cfa 10, 0
	popq	%r12
	popq	%r13
	popq	%r14
	popq	%r15
	popq	%rbp
.LVL551:
	leaq	-8(%rcx), %rsp
	.cfi_def_cfa 7, 8
.LVL552:
	ret
	.cfi_endproc
.LFE2255:
	.size	do_l1_block, .-do_l1_block
	.section	.text.unlikely
.LCOLDE6:
	.text
.LHOTE6:
	.section	.text.unlikely
.LCOLDB7:
	.text
.LHOTB7:
	.p2align 4,,15
	.globl	my_dgemm
	.type	my_dgemm, @function
my_dgemm:
.LFB2256:
	.loc 1 494 0
	.cfi_startproc
.LVL553:
	pushq	%rbp
	.cfi_def_cfa_offset 16
	.cfi_offset 6, -16
	movq	%rsp, %rbp
	.cfi_def_cfa_register 6
	pushq	%r15
	pushq	%r14
	pushq	%r13
	pushq	%r12
	pushq	%rbx
	subq	$280, %rsp
	.cfi_offset 15, -24
	.cfi_offset 14, -32
	.cfi_offset 13, -40
	.cfi_offset 12, -48
	.cfi_offset 3, -56
	call	mcount
	.loc 1 494 0
.LVL554:
.LBB891:
	.loc 1 497 0
	testl	%edx, %edx
	jle	.L349
	leal	(%rdi,%rdi,4), %eax
	movq	%r9, -320(%rbp)
	sall	$5, %eax
	movq	%r8, -312(%rbp)
	movl	%eax, -264(%rbp)
	cltq
	salq	$3, %rax
	movq	%rcx, -208(%rbp)
	movq	%rax, -272(%rbp)
	leal	(%rdx,%rdx,4), %eax
	sall	$5, %eax
	movl	%edx, -64(%rbp)
	cltq
	movl	%esi, -60(%rbp)
	movq	%rax, -280(%rbp)
	salq	$3, %rax
	movq	%rax, -288(%rbp)
	movl	%edi, %eax
	sall	$5, %eax
	movl	%edi, -56(%rbp)
	movl	%eax, -160(%rbp)
	cltq
	salq	$3, %rax
	movq	%r8, -240(%rbp)
	movq	%rax, -128(%rbp)
	movl	%edx, %eax
	movl	$0, -224(%rbp)
	sall	$5, %eax
	movq	$0, -216(%rbp)
	cltq
	salq	$3, %rax
	movq	%rax, -136(%rbp)
.LVL555:
.L308:
	movq	-216(%rbp), %rdx
.LBB892:
	.loc 1 498 0
	movl	-64(%rbp), %r8d
.LBB893:
	.loc 1 499 0
	movl	-60(%rbp), %r9d
	movl	%edx, -220(%rbp)
.LVL556:
	addl	$160, %edx
.LVL557:
.LBE893:
	.loc 1 498 0
	cmpl	%edx, %r8d
	cmovle	%r8d, %edx
	movl	%edx, -200(%rbp)
.LVL558:
.LBB912:
	.loc 1 499 0
	testl	%r9d, %r9d
	jle	.L312
	movq	-216(%rbp), %r12
	movl	%edx, %r10d
	movl	$0, -148(%rbp)
	movq	-320(%rbp), %r11
	movq	-240(%rbp), %r14
	movl	%r12d, %r13d
	movq	%r12, -256(%rbp)
	movl	-148(%rbp), %r12d
	notl	%r13d
	movq	%r11, -232(%rbp)
	addq	%r10, %r13
	subl	-220(%rbp), %r10d
	movq	%r14, -248(%rbp)
	andl	$4294967264, %r13d
	addq	$32, %r13
	movq	%r13, -296(%rbp)
	movl	%r10d, -300(%rbp)
.LVL559:
.L311:
.LBB894:
	.loc 1 500 0
	movl	-60(%rbp), %r15d
	addl	$160, %r12d
.LBB895:
	.loc 1 501 0
	movl	-56(%rbp), %esi
.LBE895:
	.loc 1 500 0
	movl	%r12d, -260(%rbp)
	cmpl	%r15d, %r12d
	cmovle	%r12d, %r15d
	movl	%r15d, -112(%rbp)
.LVL560:
.LBB911:
	.loc 1 501 0
	testl	%esi, %esi
	jle	.L315
	movq	-296(%rbp), %rcx
	movq	$0, -168(%rbp)
	addq	-256(%rbp), %rcx
	movq	-312(%rbp), %rbx
	movq	-232(%rbp), %rdx
	movl	-112(%rbp), %edi
	subl	-148(%rbp), %edi
	leaq	(%rbx,%rcx,8), %rax
	movq	%rdx, -176(%rbp)
	movq	%rax, -184(%rbp)
	movl	%edi, -196(%rbp)
.LVL561:
.L314:
	movq	-168(%rbp), %r8
.LBB896:
	.loc 1 502 0
	movl	-56(%rbp), %r10d
.LBB897:
	.loc 1 505 0
	movl	-220(%rbp), %r11d
	movl	%r8d, -120(%rbp)
.LVL562:
	addl	$160, %r8d
.LVL563:
.LBE897:
	.loc 1 502 0
	cmpl	%r8d, %r10d
	cmovle	%r10d, %r8d
	movl	%r8d, -116(%rbp)
.LVL564:
.LBB910:
	.loc 1 505 0
	cmpl	%r11d, -200(%rbp)
	jle	.L318
	movq	-168(%rbp), %r14
	movl	%r8d, %r12d
	movl	-300(%rbp), %r13d
	movl	-224(%rbp), %esi
	movq	-248(%rbp), %rcx
	movl	%r14d, %r15d
	notl	%r15d
	movl	%r13d, -152(%rbp)
	addq	%r12, %r15
	subl	-120(%rbp), %r12d
	movl	%esi, -156(%rbp)
	andl	$4294967264, %r15d
	movq	%rcx, -144(%rbp)
	leaq	32(%r15,%r14), %rbx
	movq	%rbx, -192(%rbp)
	movl	%r12d, -108(%rbp)
.LVL565:
	.p2align 4,,10
	.p2align 3
.L317:
	movl	-152(%rbp), %eax
	movl	$32, %edx
.LBB898:
.LBB899:
	.loc 1 507 0
	movl	-148(%rbp), %edi
	cmpl	$32, %eax
	cmovle	%eax, %edx
	movl	%edx, -52(%rbp)
.LVL566:
	cmpl	%edi, -112(%rbp)
	jle	.L321
	movslq	-156(%rbp), %r8
	movq	-168(%rbp), %r10
	movq	-208(%rbp), %r12
	movl	-196(%rbp), %r9d
	movq	-176(%rbp), %r15
	leaq	(%r10,%r8), %r11
	addq	-192(%rbp), %r8
	movl	-148(%rbp), %esi
	leaq	(%r12,%r11,8), %r13
	movl	%r9d, -88(%rbp)
	movq	%r13, -96(%rbp)
	leaq	(%r12,%r8,8), %r14
	movq	-144(%rbp), %r12
	movq	%r15, -80(%rbp)
	movq	%r14, -72(%rbp)
	movl	%esi, -84(%rbp)
.LVL567:
	.p2align 4,,10
	.p2align 3
.L320:
	movl	-88(%rbp), %ecx
	movl	$32, %r13d
.LBB900:
.LBB901:
	.loc 1 509 0
	movl	-120(%rbp), %ebx
	cmpl	$32, %ecx
	cmovle	%ecx, %r13d
.LVL568:
	cmpl	%ebx, -116(%rbp)
	jle	.L323
	movq	-96(%rbp), %rbx
.LVL569:
.LBB902:
	.loc 1 512 0
	subq	$8, %rsp
	movq	-72(%rbp), %rdx
	movl	$32, %ecx
	movl	%r13d, %r8d
	movl	-108(%rbp), %r14d
	movl	-52(%rbp), %r9d
	movl	-60(%rbp), %esi
	leaq	256(%rbx), %r15
	subq	%rbx, %rdx
	movl	-56(%rbp), %edi
	pushq	-80(%rbp)
	subq	$256, %rdx
	pushq	%r12
	shrq	$8, %rdx
	andl	$3, %edx
	cmpl	$32, %r14d
	pushq	%rbx
	cmovle	%r14d, %ecx
	movq	%rdx, -104(%rbp)
.LVL570:
	movl	-64(%rbp), %edx
	leal	-32(%r14), %r14d
.LVL571:
	call	do_l1_block
.LVL572:
	movq	-80(%rbp), %r10
.LBE902:
	.loc 1 509 0
	addq	$32, %rsp
	cmpq	-72(%rbp), %r15
	movq	-104(%rbp), %r11
	leaq	256(%r10), %rbx
	je	.L323
	testq	%r11, %r11
	je	.L324
	cmpq	$1, %r11
	je	.L342
	cmpq	$2, %r11
	je	.L343
.LBB903:
	.loc 1 512 0
	movl	-60(%rbp), %esi
	subq	$8, %rsp
	movl	$32, %ecx
	cmpl	$32, %r14d
	cmovle	%r14d, %ecx
	movl	-52(%rbp), %r9d
	pushq	%rbx
	movl	%r13d, %r8d
	movl	-64(%rbp), %edx
	pushq	%r12
	movl	-56(%rbp), %edi
	pushq	%r15
	call	do_l1_block
.LVL573:
	movl	-108(%rbp), %r15d
.LBE903:
	.loc 1 509 0
	addq	$32, %rsp
	movq	-96(%rbp), %rsi
	movq	-80(%rbp), %rcx
	leal	-64(%r15), %r14d
	leaq	512(%rsi), %r15
	leaq	512(%rcx), %rbx
.L343:
.LBB904:
	.loc 1 512 0
	movl	-52(%rbp), %r9d
	subq	$8, %rsp
	movl	$32, %ecx
	movl	%r13d, %r8d
	movl	-64(%rbp), %edx
	cmpl	$32, %r14d
	pushq	%rbx
	cmovle	%r14d, %ecx
	movl	-60(%rbp), %esi
	pushq	%r12
	subl	$32, %r14d
	movl	-56(%rbp), %edi
	pushq	%r15
	addq	$256, %rbx
	addq	$256, %r15
	call	do_l1_block
.LVL574:
.LBE904:
	.loc 1 509 0
	addq	$32, %rsp
.LVL575:
.L342:
.LBB905:
	.loc 1 512 0
	movl	-52(%rbp), %r9d
	subq	$8, %rsp
	movl	$32, %ecx
	movl	%r13d, %r8d
	movl	-64(%rbp), %edx
	cmpl	$32, %r14d
	pushq	%rbx
	cmovle	%r14d, %ecx
	movl	-60(%rbp), %esi
	pushq	%r12
	subl	$32, %r14d
	movl	-56(%rbp), %edi
	pushq	%r15
	addq	$256, %rbx
	addq	$256, %r15
	call	do_l1_block
.LVL576:
.LBE905:
	.loc 1 509 0
	addq	$32, %rsp
	cmpq	-72(%rbp), %r15
	je	.L323
.LVL577:
.L324:
.LBB906:
	.loc 1 512 0
	movl	-52(%rbp), %r9d
	subq	$8, %rsp
	movl	$32, %ecx
	movl	-64(%rbp), %edx
	cmpl	$32, %r14d
	pushq	%rbx
	movl	%r13d, %r8d
	cmovle	%r14d, %ecx
	movl	-60(%rbp), %esi
	pushq	%r12
	movl	-56(%rbp), %edi
	pushq	%r15
	call	do_l1_block
.LVL578:
	leal	-32(%r14), %ecx
.LBE906:
	.loc 1 509 0
	addq	$24, %rsp
.LBB907:
	.loc 1 512 0
	movl	-60(%rbp), %esi
	cmpl	$32, %ecx
	movl	$32, %edi
	movl	-52(%rbp), %r9d
	movl	%r13d, %r8d
	leaq	256(%rbx), %rdx
	cmovg	%edi, %ecx
	pushq	%rdx
	movl	-56(%rbp), %edi
	movl	-64(%rbp), %edx
	pushq	%r12
	leaq	256(%r15), %rax
	pushq	%rax
	call	do_l1_block
.LVL579:
	leal	-64(%r14), %ecx
.LBE907:
	.loc 1 509 0
	addq	$24, %rsp
.LBB908:
	.loc 1 512 0
	movl	-64(%rbp), %edx
	leaq	512(%rbx), %r9
	movl	-60(%rbp), %esi
	cmpl	$32, %ecx
	movl	$32, %r10d
	pushq	%r9
	movl	-56(%rbp), %edi
	leaq	512(%r15), %r8
	cmovg	%r10d, %ecx
	movl	-52(%rbp), %r9d
	pushq	%r12
	pushq	%r8
	movl	%r13d, %r8d
	call	do_l1_block
.LVL580:
.LBE908:
	.loc 1 509 0
	addq	$24, %rsp
.LBB909:
	.loc 1 512 0
	movl	-52(%rbp), %r9d
	movl	%r13d, %r8d
	leaq	768(%rbx), %rsi
	movl	-64(%rbp), %edx
	movl	$32, %eax
	pushq	%rsi
	leal	-96(%r14), %ecx
	movl	-60(%rbp), %esi
	movl	-56(%rbp), %edi
	leaq	768(%r15), %r11
	cmpl	$32, %ecx
	pushq	%r12
	cmovg	%eax, %ecx
	pushq	%r11
	addl	$-128, %r14d
	addq	$1024, %r15
	addq	$1024, %rbx
	call	do_l1_block
.LVL581:
.LBE909:
	.loc 1 509 0
	addq	$32, %rsp
	cmpq	-72(%rbp), %r15
	jne	.L324
.LVL582:
.L323:
.LBE901:
.LBE900:
	.loc 1 507 0
	addl	$32, -84(%rbp)
.LVL583:
	movq	-128(%rbp), %r14
	movl	-84(%rbp), %r13d
.LVL584:
	subl	$32, -88(%rbp)
.LVL585:
	addq	%r14, -80(%rbp)
	addq	-136(%rbp), %r12
	cmpl	%r13d, -112(%rbp)
	jg	.L320
.LVL586:
.L321:
	addq	$256, -144(%rbp)
	movl	-160(%rbp), %ecx
	subl	$32, -152(%rbp)
	movq	-144(%rbp), %r15
	addl	%ecx, -156(%rbp)
.LBE899:
.LBE898:
	.loc 1 505 0
	cmpq	-184(%rbp), %r15
	jne	.L317
.LVL587:
.L318:
	addq	$160, -168(%rbp)
	addq	$1280, -176(%rbp)
	movq	-168(%rbp), %rbx
.LBE910:
.LBE896:
	.loc 1 501 0
	cmpl	%ebx, -56(%rbp)
	jg	.L314
	movl	-260(%rbp), %r12d
.LVL588:
.L315:
	movq	-272(%rbp), %rdx
	movl	%r12d, -148(%rbp)
	movq	-288(%rbp), %rdi
	movq	-280(%rbp), %r8
	addq	%rdx, -232(%rbp)
	addq	%rdi, -248(%rbp)
	addq	%r8, -256(%rbp)
.LBE911:
.LBE894:
	.loc 1 499 0
	cmpl	%r12d, -60(%rbp)
	jg	.L311
.LVL589:
.L312:
	addq	$160, -216(%rbp)
	movl	-264(%rbp), %r10d
	addq	$1280, -240(%rbp)
	movq	-216(%rbp), %r9
	addl	%r10d, -224(%rbp)
.LBE912:
.LBE892:
	.loc 1 497 0
	cmpl	%r9d, -64(%rbp)
	jg	.L308
.LVL590:
.L349:
.LBE891:
	.loc 1 521 0
	leaq	-40(%rbp), %rsp
	popq	%rbx
	popq	%r12
	popq	%r13
	popq	%r14
	popq	%r15
	popq	%rbp
	.cfi_def_cfa 7, 8
	ret
	.cfi_endproc
.LFE2256:
	.size	my_dgemm, .-my_dgemm
	.section	.text.unlikely
.LCOLDE7:
	.text
.LHOTE7:
	.section	.text.unlikely
.LCOLDB8:
	.text
.LHOTB8:
	.p2align 4,,15
	.globl	square_dgemm
	.type	square_dgemm, @function
square_dgemm:
.LFB2257:
	.loc 1 525 0
	.cfi_startproc
.LVL591:
	pushq	%rbp
	.cfi_def_cfa_offset 16
	.cfi_offset 6, -16
	movq	%rsp, %rbp
	.cfi_def_cfa_register 6
	call	mcount
	.loc 1 525 0
	.loc 1 527 0
	popq	%rbp
	.cfi_def_cfa 7, 8
	.loc 1 525 0
	movq	%rdx, %r8
	movq	%rcx, %r9
	.loc 1 526 0
	movl	%edi, %edx
.LVL592:
	movq	%rsi, %rcx
.LVL593:
	movl	%edi, %esi
.LVL594:
	jmp	my_dgemm
.LVL595:
	.cfi_endproc
.LFE2257:
	.size	square_dgemm, .-square_dgemm
	.section	.text.unlikely
.LCOLDE8:
	.text
.LHOTE8:
	.section	.text.unlikely
.LCOLDB9:
	.text
.LHOTB9:
	.p2align 4,,15
	.globl	square_dgemm_l1l2
	.type	square_dgemm_l1l2, @function
square_dgemm_l1l2:
.LFB2258:
	.loc 1 529 0
	.cfi_startproc
.LVL596:
	pushq	%rbp
	.cfi_def_cfa_offset 16
	.cfi_offset 6, -16
	movq	%rsp, %rbp
	.cfi_def_cfa_register 6
	pushq	%r15
	pushq	%r14
	pushq	%r13
	pushq	%r12
	pushq	%rbx
	subq	$264, %rsp
	.cfi_offset 15, -24
	.cfi_offset 14, -32
	.cfi_offset 13, -40
	.cfi_offset 12, -48
	.cfi_offset 3, -56
	call	mcount
	.loc 1 529 0
.LVL597:
.LBB913:
	.loc 1 534 0
	testl	%edi, %edi
	jle	.L375
	movl	%edi, %r14d
	movl	%r9d, %eax
	movl	%r8d, %ebx
	movq	%rsi, -104(%rbp)
	imull	%r14d, %eax
	movslq	%r9d, %rsi
.LVL598:
	movl	%r8d, %r13d
	movq	%rcx, -112(%rbp)
	imull	%r14d, %ebx
	leaq	0(,%rsi,8), %rdi
.LVL599:
	movq	%rsi, -288(%rbp)
	negq	%rsi
	movl	%r9d, -216(%rbp)
	movq	%rsi, %rcx
.LVL600:
	movl	%r13d, %r11d
	movl	%r13d, %r15d
	movq	%rdx, -160(%rbp)
	movl	%r9d, %edx
.LVL601:
	movslq	%r13d, %r9
.LVL602:
	negl	%r15d
	movl	%eax, -272(%rbp)
	movslq	%ebx, %r10
	cltq
	salq	$3, %rcx
	salq	$3, %rax
	salq	$3, %r9
	subl	%edx, %r11d
	movl	%r15d, -60(%rbp)
	salq	$3, %r10
	movl	%r14d, %r15d
	movq	%rdi, -256(%rbp)
	movl	%r13d, %r14d
.LVL603:
	movq	%rax, -280(%rbp)
	movq	%rcx, -296(%rbp)
	movl	%ebx, -184(%rbp)
	movq	%r9, -88(%rbp)
	movq	%r10, -136(%rbp)
	movl	$0, -228(%rbp)
	movq	$0, -248(%rbp)
	movl	$0, -212(%rbp)
	movl	%r11d, -232(%rbp)
.LVL604:
.L365:
.LBB914:
	.loc 1 535 0
	movl	$0, -176(%rbp)
	movl	-212(%rbp), %edx
	movl	-216(%rbp), %ebx
	movq	$0, -264(%rbp)
	movl	-232(%rbp), %ecx
	movl	-176(%rbp), %r13d
	addl	%edx, %ebx
	cmpl	%r15d, %ebx
	movl	%ebx, %esi
	movl	%ebx, -268(%rbp)
	cmovg	%r15d, %esi
	addl	%ebx, %ecx
	movl	%ecx, -300(%rbp)
	movl	%esi, %r9d
	movl	%esi, -180(%rbp)
.LVL605:
	subl	%edx, %r9d
	movl	%r9d, -304(%rbp)
.LVL606:
.L364:
.LBB915:
.LBB916:
	.loc 1 537 0
	addl	-216(%rbp), %r13d
	movl	$0, -128(%rbp)
	movq	$0, -200(%rbp)
	movl	-128(%rbp), %edx
	movq	-264(%rbp), %r11
	movq	-248(%rbp), %r12
	cmpl	%r15d, %r13d
	movl	%r13d, -220(%rbp)
	cmovg	%r15d, %r13d
	movq	%r11, -192(%rbp)
	movl	%r13d, -124(%rbp)
.LVL607:
	movl	%r14d, %r13d
.LVL608:
	movq	%r12, -240(%rbp)
.LVL609:
.L354:
.LBB917:
.LBB918:
	.loc 1 539 0
	addl	-216(%rbp), %edx
.LBB919:
	.loc 1 542 0
	movl	-212(%rbp), %r14d
.LBE919:
	.loc 1 539 0
	cmpl	%r15d, %edx
	movl	%edx, -224(%rbp)
	cmovg	%r15d, %edx
	movl	%edx, -64(%rbp)
.LVL610:
.LBB927:
	.loc 1 542 0
	cmpl	%r14d, -180(%rbp)
	jle	.L358
	movl	-232(%rbp), %edi
	movl	-220(%rbp), %ecx
	movl	-224(%rbp), %r9d
	movl	-300(%rbp), %eax
	movl	-304(%rbp), %edx
.LVL611:
	movq	-240(%rbp), %rbx
	addl	%edi, %ecx
	movl	-228(%rbp), %esi
	addl	%edi, %r9d
	movl	%ecx, -204(%rbp)
	movl	-124(%rbp), %r8d
	movl	%eax, -164(%rbp)
	subl	-176(%rbp), %r8d
	movl	%edx, -168(%rbp)
	movl	-64(%rbp), %r10d
	movq	%rbx, -144(%rbp)
	subl	-128(%rbp), %r10d
	movl	%esi, -172(%rbp)
	movl	%r9d, -148(%rbp)
	movl	%r8d, -208(%rbp)
	movl	%r10d, -152(%rbp)
.LVL612:
.L357:
.LBB920:
	.loc 1 543 0
	movl	-168(%rbp), %r11d
.LBB921:
	.loc 1 544 0
	movl	-176(%rbp), %r12d
.LBE921:
	.loc 1 543 0
	cmpl	%r13d, %r11d
	cmovg	%r13d, %r11d
	movl	%r11d, -72(%rbp)
.LVL613:
.LBB926:
	.loc 1 544 0
	cmpl	%r12d, -124(%rbp)
	jle	.L361
	movslq	-172(%rbp), %rdx
	addq	-200(%rbp), %rdx
	movl	-204(%rbp), %r14d
	movl	-208(%rbp), %eax
	movq	-192(%rbp), %rbx
	salq	$3, %rdx
	movl	%r14d, -116(%rbp)
	movl	%eax, -120(%rbp)
	movq	%rdx, -96(%rbp)
	movq	%rbx, -56(%rbp)
.LVL614:
	.p2align 4,,10
	.p2align 3
.L360:
.LBB922:
	.loc 1 545 0
	movl	-120(%rbp), %esi
.LBB923:
	.loc 1 546 0
	movl	-128(%rbp), %ecx
.LBE923:
	.loc 1 545 0
	cmpl	%r13d, %esi
	cmovg	%r13d, %esi
	movl	%esi, -68(%rbp)
.LVL615:
.LBB925:
	.loc 1 546 0
	cmpl	%ecx, -64(%rbp)
	jle	.L363
	movq	-56(%rbp), %rdi
	movl	%r13d, %r8d
	xorl	%ebx, %ebx
	addq	-144(%rbp), %rdi
	movl	%r15d, %r13d
.LVL616:
	movl	%r8d, %r15d
.LVL617:
	addq	-160(%rbp), %rdi
	movl	-148(%rbp), %r12d
	movl	-152(%rbp), %r14d
	movq	%rdi, -80(%rbp)
.LVL618:
	.p2align 4,,10
	.p2align 3
.L362:
	movq	-56(%rbp), %r9
.LBB924:
	.loc 1 549 0 discriminator 3
	subq	$8, %rsp
	.loc 1 547 0 discriminator 3
	movl	%r15d, %ecx
	cmpl	%r15d, %r14d
	movq	-96(%rbp), %r11
	.loc 1 549 0 discriminator 3
	movl	%r13d, %edx
	movl	%r13d, %esi
	movl	%r13d, %edi
	.loc 1 547 0 discriminator 3
	cmovle	%r14d, %ecx
	.loc 1 549 0 discriminator 3
	movl	-68(%rbp), %r8d
	addl	%r15d, %r12d
	leaq	(%r9,%rbx), %r10
	addq	-112(%rbp), %r10
	movl	-72(%rbp), %r9d
	leaq	(%rbx,%r11), %rax
	addq	-104(%rbp), %rax
	pushq	%r10
	pushq	-80(%rbp)
	pushq	%rax
	call	do_l1_block
.LVL619:
	movl	%r12d, %edx
	addl	-60(%rbp), %r14d
.LVL620:
.LBE924:
	.loc 1 546 0 discriminator 3
	addq	$32, %rsp
	addq	-88(%rbp), %rbx
	subl	%r15d, %edx
	cmpl	-64(%rbp), %edx
	jl	.L362
	movl	%r15d, %esi
	movl	%r13d, %r15d
.LVL621:
	movl	%esi, %r13d
.LVL622:
.L363:
	addl	%r13d, -116(%rbp)
	movl	-116(%rbp), %ecx
	movl	-60(%rbp), %edi
	movq	-136(%rbp), %r12
	addl	%edi, -120(%rbp)
	addq	%r12, -56(%rbp)
	subl	%r13d, %ecx
.LBE925:
.LBE922:
	.loc 1 544 0
	cmpl	%ecx, -124(%rbp)
	jg	.L360
.LVL623:
.L361:
	addl	%r13d, -164(%rbp)
	movl	-164(%rbp), %r14d
	movl	-60(%rbp), %ebx
	movl	-184(%rbp), %r8d
	movq	-88(%rbp), %r9
	addl	%ebx, -168(%rbp)
	subl	%r13d, %r14d
	addl	%r8d, -172(%rbp)
	addq	%r9, -144(%rbp)
.LBE926:
.LBE920:
	.loc 1 542 0
	cmpl	%r14d, -180(%rbp)
	jg	.L357
.LVL624:
.L358:
	movl	-224(%rbp), %edx
	movq	-296(%rbp), %r10
	movq	-256(%rbp), %r11
	movq	-288(%rbp), %rax
	addq	%r10, -240(%rbp)
	movl	%edx, -128(%rbp)
	addq	%r11, -192(%rbp)
	addq	%rax, -200(%rbp)
.LBE927:
.LBE918:
	.loc 1 538 0
	cmpl	%edx, %r15d
	jg	.L354
	movl	%r13d, %r14d
.LVL625:
	movl	-220(%rbp), %r13d
.LVL626:
	movq	-280(%rbp), %rsi
	addq	%rsi, -264(%rbp)
	movl	%r13d, -176(%rbp)
.LBE917:
.LBE916:
	.loc 1 536 0
	cmpl	%r13d, %r15d
	jg	.L364
.LVL627:
	movl	-268(%rbp), %r12d
	movq	-256(%rbp), %rcx
	movl	-272(%rbp), %edi
	addq	%rcx, -248(%rbp)
	addl	%edi, -228(%rbp)
	movl	%r12d, -212(%rbp)
.LBE915:
.LBE914:
	.loc 1 534 0
	cmpl	%r12d, %r15d
	jg	.L365
.LVL628:
.L375:
.LBE913:
	.loc 1 558 0
	leaq	-40(%rbp), %rsp
	popq	%rbx
	popq	%r12
	popq	%r13
	popq	%r14
	popq	%r15
	popq	%rbp
	.cfi_def_cfa 7, 8
	ret
	.cfi_endproc
.LFE2258:
	.size	square_dgemm_l1l2, .-square_dgemm_l1l2
	.section	.text.unlikely
.LCOLDE9:
	.text
.LHOTE9:
	.globl	L2_BLOCK_SIZE
	.section	.rodata
	.align 4
	.type	L2_BLOCK_SIZE, @object
	.size	L2_BLOCK_SIZE, 4
L2_BLOCK_SIZE:
	.long	160
	.globl	L1_BLOCK_SIZE
	.align 4
	.type	L1_BLOCK_SIZE, @object
	.size	L1_BLOCK_SIZE, 4
L1_BLOCK_SIZE:
	.long	32
	.globl	dgemm_desc
	.section	.rodata.str1.1,"aMS",@progbits,1
.LC10:
	.string	"mydgemm"
	.data
	.align 8
	.type	dgemm_desc, @object
	.size	dgemm_desc, 8
dgemm_desc:
	.quad	.LC10
	.text
.Letext0:
	.section	.text.unlikely
.Letext_cold0:
	.file 4 "/usr/lib/gcc/x86_64-pc-linux-gnu/4.9.3/include/stddef.h"
	.file 5 "/usr/include/bits/types.h"
	.file 6 "/usr/include/libio.h"
	.file 7 "/usr/include/stdio.h"
	.section	.note.GNU-stack,"",@progbits
